(dp0
V\u653f\u6cbb/\u519b\u4e8b--\u653f\u6cbb--\u4e2d\u56fd\u5916\u4ea4
p1
I0
sV\u6587\u5316--\u4e16\u754c\u5404\u56fd\u6587\u5316--\u5176\u4ed6
p2
I0
sV\u5973\u58eb\u670d\u88c5--T\u6064
p3
I5
sV\u5185\u8863\u889c\u54c1--\u6587\u80f8
p4
I9
sV\u6210\u529f/\u52b1\u5fd7--\u4eba\u751f\u54f2\u5b66--\u4eba\u751f\u89c4\u5212
p5
I0
sV\u8425\u517b\u54c1--\u725b\u521d\u4e73\u7c7b
p6
I0
sV\u5bb6\u5c45\u5bb6\u7eba--\u513f\u7ae5\u5e8a\u54c1--\u513f\u7ae5\u5957\u4ef6
p7
I0
sV\u7f8e\u5bb9\u5de5\u5177--\u62a4\u80a4\u5de5\u5177
p8
I0
sV\u53a8\u623f\u7528\u54c1--\u70f9\u996a\u9505\u5177--\u84b8\u9505
p9
I0
sV\u7ae5\u978b--\u76ae\u978b
p10
I2
sV\u6e2f\u53f0\u5716\u66f8--\u6587\u5b66--\u534e\u6587\u521b\u4f5c
p11
I0
sV\u5386\u53f2--\u4e16\u754c\u53f2--\u6b27\u6d32\u53f2
p12
I121
sV\u7f8e\u5bb9\u62a4\u80a4--\u9632\u6652\u9694\u79bb
p13
I8
sV\u4e2d\u5c0f\u5b66\u6559\u8f85--\u9ad8\u8003--\u8de8\u79d1\u76ee
p14
I0
sV\u827a\u672f--\u6444\u5f71--\u4f5c\u54c1\u96c6/\u4f5c\u54c1\u8d4f\u6790
p15
I0
sV\u6210\u529f/\u52b1\u5fd7--\u53e3\u624d/\u6f14\u8bb2/\u8fa9\u8bba--\u6f14\u8bb2/\u5f53\u4f17\u8bb2\u8bdd
p16
I0
sV\u4f11\u95f2\u96f6\u98df--\u871c\u996f\u679c\u812f
p17
I0
sV\u7ae5\u4e66--\u8fdb\u53e3\u513f\u7ae5\u4e66--Biography \u4f20\u8bb0
p18
I0
sV\u5a74\u5e7c\u513f\u670d\u9970(0-2\u5c81)--\u5957\u88c5
p19
I0
sV\u5b55\u5a74\u6d17\u62a4--\u723d\u8eab\u7cfb\u5217
p20
I0
sV\u6237\u5916\u88c5\u5907--\u519b\u8ff7\u7528\u54c1
p21
I25
sV\u6027\u798f\u6210\u4eba--\u60c5\u7231\u73a9\u5177
p22
I1
sV\u6587\u5b66--\u5916\u56fd\u8bd7\u6b4c
p23
I0
sV\u6210\u529f/\u52b1\u5fd7--\u4eba\u9645\u4ea4\u5f80--\u793e\u4ea4/\u4ea4\u9645/\u516c\u5173
p24
I0
sV\u8f85\u98df--\u7c73\u7c89/\u83dc\u7c89
p25
I0
sV\u5973\u58eb\u670d\u88c5--\u88e4\u88c5
p26
I8
sV\u4f20\u8bb0--\u5386\u53f2\u4eba\u7269
p27
I0
sV\u5b55\u5a74\u6d17\u62a4--\u793c\u76d2\u7cfb\u5217
p28
I0
sV\u751f\u6d3b\u7535\u5668--\u6302\u70eb\u673a/\u71a8\u6597
p29
I0
sV\u4f11\u95f2\u96f6\u98df--\u81a8\u5316\u98df\u54c1
p30
I0
sV\u5fc3\u7406\u5b66--\u5fc3\u7406\u5b66\u7ecf\u5178\u8457\u4f5c
p31
I26
sV\u6e05\u6d01\u62a4\u7406--\u52b3\u4fdd\u9632\u62a4
p32
I3
sV\u5eb7\u590d\u62a4\u7406--\u827e\u7078\u62d4\u7f50
p33
I15
sV\u8fdb\u53e3\u98df\u54c1--\u997c\u5e72\u7cd5\u70b9
p34
I61
sV\u7535\u5b50\u6559\u80b2--\u590d\u8bfb\u673a
p35
I0
sV\u529e\u516c\u7528\u54c1--\u672c\u518c/\u4fbf\u7b7e
p36
I1
sV\u6210\u529f/\u52b1\u5fd7--\u6210\u529f/\u6fc0\u52b1--\u673a\u9047\u4e0e\u8fd0\u6c14
p37
I0
sV\u65f6\u5c1a\u5bb6\u9970--\u521b\u610f\u5bb6\u9970
p38
I0
sV\u5065\u5eb7\u5668\u68b0--\u6309\u6469\u5668
p39
I17
sV\u5c0f\u8bf4--\u79d1\u5e7b 
p40
I12
sV\u9752\u6625\u6587\u5b66--\u6821\u56ed
p41
I1
sV\u7537\u58eb\u670d\u88c5--\u886c\u886b
p42
I5
sV\u53a8\u623f\u7528\u54c1--\u83dc\u677f\u5200\u526a\u5177
p43
I0
sV\u6587\u5b66--\u4e2d\u56fd\u53e4\u8bd7\u8bcd
p44
I0
sV\u670d\u9970\u914d\u4ef6--\u9886\u5e26/\u9886\u7ed3
p45
I14
sV\u89c6\u542c\u5f71\u97f3--\u8033\u673a/\u8033\u9ea6
p46
I2
sV\u79ef\u6728\u62fc\u63d2--\u8da3\u5473\u62fc\u56fe
p47
I1
sV\u5185\u8863\u889c\u54c1--\u5185\u88e4
p48
I5
sV\u5386\u53f2--\u4e16\u754c\u53f2--\u4e16\u754c\u901a\u53f2
p49
I0
sV\u4e2a\u4eba\u62a4\u7406--\u8eab\u4f53\u4e73
p50
I2
sV\u5582\u517b\u7528\u54c1--\u5582\u54fa\u6e05\u6d01
p51
I0
sV\u533b\u5b66--\u533b\u5b66\u5de5\u5177\u4e66
p52
I0
sV\u5496\u5561/\u5976\u8336
p53
I0
sV\u7537\u58eb\u670d\u88c5--\u4f11\u95f2\u88e4
p54
I3
sV\u5c0f\u8bf4--\u5916\u56fd\u5c0f\u8bf4--\u82f1\u56fd
p55
I0
sV\u7ae5\u88c5--T\u6064/polo\u886b
p56
I9
sV\u4f20\u8bb0--\u5b97\u6559\u4eba\u7269
p57
I0
sV\u9752\u6625\u6587\u5b66--\u5f71\u89c6\u5199\u771f
p58
I0
sV\u5065\u5eb7\u5668\u68b0--\u8840\u538b\u8ba1
p59
I0
sV\u4f11\u95f2\u96f6\u98df--\u7cd6\u679c
p60
I20
sV\u6027\u798f\u6210\u4eba--\u60c5\u8da3\u5185\u8863
p61
I5
sV\u6210\u529f/\u52b1\u5fd7--\u60c5\u5546/\u60c5\u7eea\u7ba1\u7406--\u60c5\u7eea\u7ba1\u7406
p62
I112
sV\u79d1\u666e\u8bfb\u7269--\u4eba\u7c7b\u6545\u4e8b
p63
I0
sV\u5582\u517b\u7528\u54c1--\u9910\u5177
p64
I0
sV\u53a8\u623f\u7535\u5668--\u6253\u86cb\u5668/\u716e\u86cb\u5668
p65
I0
sV\u7ba1\u7406--\u7ba1\u7406\u4fe1\u606f\u7cfb\u7edf
p66
I0
sV\u5bb6\u5c45\u5bb6\u7eba--\u6bdb\u5dfe/\u6d74\u5dfe--\u62d6\u978b
p67
I4
sV\u8425\u517b\u5065\u5eb7--\u9499\u9541\u94c1\u950c
p68
I0
sV\u8f66\u9970\u7cbe\u54c1--\u8f66\u5185\u529f\u80fd\u7528\u54c1
p69
I0
sV\u7ba1\u7406--\u5e02\u573a/\u8425\u9500--\u5e02\u573a\u8425\u9500
p70
I58
sV\u8fdb\u53e3\u98df\u54c1--\u5de7\u514b\u529b
p71
I73
sV\u8f85\u98df--\u8089\u677e
p72
I0
sV\u54f2\u5b66/\u5b97\u6559--\u5b97\u6559--\u4f5b\u6559
p73
I20
sV\u4f20\u8bb0--\u8d22\u7ecf\u4eba\u7269--\u5916\u56fd\u8d22\u7ecf\u4eba\u7269
p74
I0
sV\u6587\u5316--\u5730\u57df\u6587\u5316--\u85cf\u6587\u5316
p75
I0
sV\u6587\u5316--\u4e16\u754c\u5404\u56fd\u6587\u5316--\u4e1c\u65b9\u6587\u5316
p76
I0
sV\u5386\u53f2--\u5386\u53f2\u666e\u53ca\u8bfb\u7269--\u4e2d\u56fd\u8fd1\u73b0\u4ee3\u53f2
p77
I0
sV\u5957\u88c5--\u8fd0\u52a8\u5957\u88c5
p78
I2
sV\u53a8\u623f\u7528\u54c1--\u70f9\u996a\u9505\u5177--\u5957\u88c5\u9505
p79
I0
sV\u5386\u53f2--\u5386\u53f2\u666e\u53ca\u8bfb\u7269--\u4e2d\u56fd\u53e4\u4ee3\u53f2
p80
I0
sV\u8425\u517b\u54c1--\u76ca\u751f\u83cc
p81
I0
sV\u6587\u5316--\u6587\u5316\u8bc4\u8ff0
p82
I3
sV\u53a8\u536b\u88c5\u9970--\u536b\u6d74\u6d01\u5177
p83
I0
sVdangdang baby--\u8fde\u4f53\u8863/\u722c\u722c\u670d
p84
I5
sV\u7f51\u7edc\u4ea7\u54c1--\u8def\u7531\u5668
p85
I0
sV\u6559\u6750--\u5f81\u8ba2\u6559\u6750--\u516c\u5171\u8bfe
p86
I0
sV\u8336--\u5176\u4ed6
p87
I0
sV\u4fdd\u5065/\u517b\u751f--\u4e2d\u533b\u517b\u751f--\u522e\u75e7\u827e\u7099
p88
I0
sV\u5c0f\u8bf4--\u5916\u56fd\u5c0f\u8bf4--\u5fb7\u56fd
p89
I0
sV\u5a74\u5e7c\u513f\u670d\u9970(0-2\u5c81)--\u5916\u51fa\u670d
p90
I0
sV\u53a8\u623f\u7528\u54c1--\u6c34\u5177\u8336\u5177\u9152\u5177--\u6c34\u676f
p91
I1
sV\u6210\u529f/\u52b1\u5fd7--\u52b1\u5fd7\u7ecf\u5178\u8457\u4f5c--\u5361\u8010\u57fa
p92
I0
sV\u5367\u5ba4\u5bb6\u5177--\u7b80\u6613\u8863\u67dc
p93
I4
sV\u5fc3\u7406\u5b66--\u5fc3\u7406\u54a8\u8be2\u4e0e\u6cbb\u7597--\u75c5\u75c7\u89e3\u6790
p94
I0
sV\u6210\u529f/\u52b1\u5fd7--\u53e3\u624d/\u6f14\u8bb2/\u8fa9\u8bba--\u53e3\u624d\u603b\u8bba
p95
I0
sV\u6237\u5916\u670d\u9970--\u6293\u7ed2\u8863\u88e4
p96
I0
sV\u5bb6\u5c45\u5bb6\u7eba--\u6bdb\u5dfe/\u6d74\u5dfe--\u6d74\u5dfe
p97
I4
sV\u53a8\u623f\u7528\u54c1--\u4fdd\u9c9c\u6536\u7eb3--\u4fdd\u9c9c\u819c/\u888b
p98
I0
sV\u8fd0\u52a8\u914d\u4ef6--\u9644\u4ef6
p99
I0
sV\u4f20\u8bb0--\u5176\u4ed6
p100
I0
sV\u7f8e\u5bb9\u62a4\u80a4--\u9762\u819c
p101
I2
sV\u51b2\u8c03
p102
I0
sV\u4fdd\u5065/\u517b\u751f--\u5065\u5eb7\u767e\u79d1
p103
I77
sV\u6c7d\u8f66\u7f8e\u5bb9--\u64e6\u8f66\u5dfe/\u6d77\u7ef5
p104
I6
sV\u9065\u63a7\u7535\u52a8--\u7535\u52a8\u73a9\u5177
p105
I0
sV\u4f20\u8bb0--\u827a\u672f\u5bb6--\u7f8e\u672f\u5bb6
p106
I0
sV\u4e2a\u4eba\u62a4\u7406--\u6c90\u6d74\u7528\u54c1--\u6c90\u6d74\u9732
p107
I0
sV\u6210\u529f/\u52b1\u5fd7--\u5973\u6027\u52b1\u5fd7
p108
I24
sV\u65f6\u5c1a\u5bb6\u9970--\u6446\u9970/\u6302\u4ef6
p109
I0
sV\u4f11\u95f2/\u7231\u597d--\u5ba0\u7269\u6742\u4e8b
p110
I29
sV\u65f6\u5c1a\u5bb6\u9970--\u5730\u6bef/\u5730\u57ab
p111
I7
sV\u53a8\u623f\u7535\u5668--\u7535\u7096\u9505
p112
I0
sV\u6587\u5177--\u529e\u516c\u6587\u5177--\u529e\u516c\u8bbe\u5907
p113
I0
sV\u653f\u6cbb/\u519b\u4e8b--\u519b\u4e8b--\u519b\u4e8b\u7406\u8bba
p114
I0
sV\u5976\u7c89--\u56db\u6bb5/\u4e94\u6bb5\u5976\u7c89
p115
I5
sV\u4e24\u6027\u5173\u7cfb--\u4e24\u6027\u5173\u7cfb
p116
I32
sV\u6237\u5916\u88c5\u5907--\u6237\u5916\u5de5\u5177
p117
I12
sV\u827a\u672f--\u8bbe\u8ba1--\u5e73\u9762\u8bbe\u8ba1
p118
I0
sV\u5bb6\u5c45\u5bb6\u7eba--\u513f\u7ae5\u5e8a\u54c1--\u513f\u7ae5\u6bdb\u6bef/\u6bef\u5b50
p119
I0
sV\u6210\u529f/\u52b1\u5fd7--\u4eba\u9645\u4ea4\u5f80--\u4ea4\u5f80/\u4e0e\u4eba\u76f8\u5904
p120
I0
sV\u6c34\u6676\u739b\u7459--\u9879\u94fe/\u540a\u5760
p121
I0
sV\u5582\u517b\u7528\u54c1--\u5438\u4e73\u5668
p122
I0
sV\u5eb7\u590d\u62a4\u7406--\u4fdd\u5065\u62a4\u5177
p123
I2
sV\u5c3f\u88e4--\u88e4\u578b\u7eb8\u5c3f\u88e4
p124
I0
sV\u5a74\u513f\u73a9\u5177--\u65e9\u6559\u4ea7\u54c1
p125
I1
sV\u5386\u53f2--\u53f2\u5bb6\u540d\u8457
p126
I0
sV\u6237\u5916\u670d\u9970--\u670d\u9970\u914d\u4ef6
p127
I12
sVdangdang baby--\u5b9d\u5b9d\u5957\u88c5
p128
I0
sV\u65f6\u5c1a\u5bb6\u9970--\u6302\u949f\u95f9\u949f
p129
I0
sV\u54f2\u5b66/\u5b97\u6559--\u54f2\u5b66--\u7f8e\u5b66
p130
I0
sV\u6e2f\u53f0\u5716\u66f8--\u6587\u5b66--\u7ffb\u8bd1\u6587\u5b66
p131
I0
sV\u5750\u57ab/\u811a\u57ab--\u6bdb\u57ab
p132
I0
sV\u6210\u529f/\u52b1\u5fd7--\u9752\u5c11\u5e74\u52b1\u5fd7--\u4eba\u683c\u5851\u9020/\u4e60\u60ef\u57f9\u517b
p133
I0
sV\u6210\u529f/\u52b1\u5fd7--\u5904\u4e16\u5b66--\u505a\u4eba\u505a\u4e8b
p134
I0
sV\u5973\u978b--\u5355\u978b
p135
I6
sV\u70f9\u996a/\u7f8e\u98df--\u5bb6\u5e38\u83dc\u8c31--\u4e3b\u98df
p136
I0
sV\u653f\u6cbb/\u519b\u4e8b--\u653f\u6cbb--\u65f6\u4e8b\u653f\u6cbb
p137
I0
sV\u5386\u53f2--\u5386\u53f2\u666e\u53ca\u8bfb\u7269--\u4e16\u754c\u8fd1\u73b0\u4ee3\u53f2
p138
I0
sV\u4fdd\u5065/\u517b\u751f--\u4e2d\u533b\u517b\u751f--\u6309\u6469\u62d4\u7f50
p139
I0
sV\u624b\u673a\u914d\u4ef6--\u624b\u673a\u8033\u673a
p140
I4
sV\u6210\u529f/\u52b1\u5fd7--\u6210\u529f/\u6fc0\u52b1--\u81ea\u6211\u7ecf\u8425
p141
I11
sV\u5b55\u5a74\u6d17\u62a4--\u5b55\u5988\u54aa\u6d17\u62a4--\u53e3\u8154\u62a4\u7406
p142
I0
sV\u53a8\u623f\u7528\u54c1--\u4fdd\u9c9c\u6536\u7eb3--\u4fdd\u9c9c\u76d2
p143
I1
sV\u9752\u6625\u6587\u5b66--\u5a31\u4e50/\u5076\u50cf
p144
I14
sV\u5ba2\u5385\u5bb6\u5177--\u7cbe\u54c1\u6c99\u53d1
p145
I20
sV\u53a8\u623f\u7528\u54c1--\u53a8\u623f\u6742\u4ef6--\u70f9\u996a\u94f2\u52fa
p146
I0
sV\u52a8\u6f2b/\u5e7d\u9ed8--\u6e2f\u53f0\u6f2b\u753b--\u5176\u4ed6\u6e2f\u53f0\u6f2b\u753b
p147
I0
sV\u5a74\u513f\u73a9\u5177--\u6447\u94c3\u5e8a\u94c3
p148
I1
sV\u7ecf\u6d4e--\u4e2d\u56fd\u7ecf\u6d4e--\u4e2d\u56fd\u7ecf\u6d4e\u6982\u51b5
p149
I55
sV\u4f11\u95f2\u96f6\u98df--\u5de7\u514b\u529b
p150
I0
sV\u706f\u5177\u7167\u660e--\u5c04\u706f
p151
I0
sV\u5bb6\u5c45\u5bb6\u7eba--\u5e8a\u57ab/\u5e8a\u8925
p152
I5
sV\u5b55\u5a74\u6d17\u62a4--\u68c9\u7b7e
p153
I2
sV\u5916\u8bed --\u82f1\u8bed\u8bfb\u7269--\u82f1\u6c49\u5bf9\u7167
p154
I11
sV\u4f20\u8bb0--\u5b66\u8005
p155
I0
sV\u8ba1\u7b97\u673a/\u7f51\u7edc--\u8f6f\u4ef6\u5de5\u7a0b/\u5f00\u53d1\u9879\u76ee\u7ba1\u7406
p156
I0
sV\u6587\u5b66--\u7eaa\u5b9e\u6587\u5b66
p157
I67
sV\u5b55\u5987\u88c5/\u5b55\u4ea7\u5987\u7528\u54c1--\u5b55\u4ea7\u5987\u5185\u8863
p158
I0
sV\u7ae5\u4e66--\u7cbe\u88c5\u56fe\u753b\u4e66--\u6b27\u7f8e
p159
I0
sV\u5b55\u5a74\u6d17\u62a4--\u62a4\u81c0\u7cfb\u5217
p160
I0
sV\u70f9\u996a/\u7f8e\u98df--\u8336\u9152\u996e\u6599--\u8336
p161
I0
sV\u53e4\u5178\u97f3\u4e50--\u53e4\u5178\u5408\u96c6
p162
I0
sV\u6e05\u6d01\u62a4\u7406--\u76ae\u9769\u5730\u677f\u62a4\u7406
p163
I30
sV\u653f\u6cbb/\u519b\u4e8b--\u653f\u6cbb--\u4e16\u754c\u653f\u6cbb
p164
I0
sV\u8fd0\u52a8\u670d\u88c5--\u5f00\u886b/\u536b\u8863/\u9488\u7ec7\u886b
p165
I0
sV\u6210\u529f/\u52b1\u5fd7--\u9752\u5c11\u5e74\u52b1\u5fd7--\u8003\u5546/\u5b66\u4e60\u529b/\u601d\u7ef4
p166
I0
sV\u5973\u58eb\u670d\u88c5--\u5927\u7801\u5973\u88c5
p167
I0
sV\u5582\u517b\u7528\u54c1--\u9632\u6ea2\u4e73\u57ab
p168
I0
sV\u6210\u529f/\u52b1\u5fd7--\u4eba\u751f\u54f2\u5b66--\u4eba\u751f\u9009\u62e9\u4e0e\u6539\u53d8
p169
I0
sV\u54f2\u5b66/\u5b97\u6559--\u54f2\u5b66--\u54f2\u5b66\u4e0e\u4eba\u751f
p170
I26
sV\u7ae5\u978b--\u68c9\u978b
p171
I2
sV\u4fdd\u5065/\u517b\u751f--\u996e\u98df\u5065\u5eb7
p172
I69
sV\u53e4\u7c4d--\u96c6\u90e8--\u8bcd\u7c7b
p173
I0
sV\u7f8e\u5bb9\u62a4\u80a4--\u6da6\u5507\u818f
p174
I2
sV\u6210\u529f/\u52b1\u5fd7--\u4eba\u751f\u54f2\u5b66--\u4eba\u751f\u667a\u6167
p175
I21
sV\u65f6\u5c1a\u5bb6\u9970--\u5899\u58c1\u88c5\u9970
p176
I3
sV\u9633\u53f0\u6237\u5916--\u667e\u8863\u67b6/\u70eb\u8863\u677f
p177
I14
sV\u4e2d\u5c0f\u5b66\u6559\u8f85--\u9ad8\u8003--\u586b\u62a5\u5fd7\u613f
p178
I0
sV\u7ba1\u7406--\u91d1\u878d/\u6295\u8d44--\u8d27\u5e01\u94f6\u884c\u5b66
p179
I0
sV\u6210\u529f/\u52b1\u5fd7--\u6210\u529f/\u6fc0\u52b1--\u6fc0\u52b1
p180
I80
sV\u5bdd\u5c45\u7528\u54c1--\u7761\u888b/\u62b1\u88ab/\u62b1\u6bef
p181
I0
sV\u53a8\u623f\u7535\u5668--\u7535\u70e4\u7bb1
p182
I0
sV\u5bb6\u5ead/\u5bb6\u5c45--\u5bb6\u88c5\u6548\u679c\u5b9e\u4f8b
p183
I1
sV\u6210\u529f/\u52b1\u5fd7--\u6210\u529f/\u6fc0\u52b1--\u6210\u529f\u6cd5\u5219
p184
I4
sV\u5c0f\u8bf4--\u5f71\u89c6\u5c0f\u8bf4
p185
I14
sV\u6210\u529f/\u52b1\u5fd7--\u60c5\u5546/\u60c5\u7eea\u7ba1\u7406--\u81ea\u6211\u7ba1\u7406
p186
I0
sV\u8f85\u98df--\u6ce5\u7cca
p187
I0
sVdangdang kids--\u88e4\u5b50
p188
I0
sV\u53e4\u7c4d--\u5b50\u90e8--\u5112\u5bb6\u7c7b
p189
I0
sV\u7ae5\u4e66--\u5916\u56fd\u513f\u7ae5\u6587\u5b66--\u4fa6\u63a2/\u5192\u9669\u5c0f\u8bf4
p190
I0
sV\u4e66\u623f\u5bb6\u5177--\u7535\u8111\u684c\u6905
p191
I0
sV\u4e2d\u5c0f\u5b66\u6559\u8f85--\u62d3\u5c55\u8bfb\u7269
p192
I94
sV\u7f8e\u5bb9\u5de5\u5177--\u5f69\u5986\u5de5\u5177
p193
I0
sV\u6237\u5916\u88c5\u5907--\u91ce\u9910\u708a\u5177/\u9910\u5177
p194
I0
sV\u5386\u53f2--\u5386\u53f2\u968f\u7b14
p195
I0
sV\u53a8\u623f\u7528\u54c1--\u70f9\u996a\u9505\u5177--\u538b\u529b\u9505
p196
I0
sV\u5c0f\u8bf4--\u4e16\u754c\u540d\u8457--\u7f8e\u6d32
p197
I1
sVdangdang kids--\u5957\u88c5
p198
I0
sV\u5c0f\u8bf4--\u5916\u56fd\u5c0f\u8bf4--\u6cd5\u56fd
p199
I0
sV\u5750\u57ab/\u811a\u57ab--\u4e13\u8f66\u4e13\u7528\u811a\u57ab
p200
I0
sV\u7ae5\u4e66--\u4e2d\u56fd\u513f\u7ae5\u6587\u5b66--\u52a8\u7269\u5c0f\u8bf4
p201
I0
sV\u6bdb\u7ed2\u73a9\u5177--\u624b\u5076\u73a9\u5177
p202
I0
sV\u5582\u517b\u7528\u54c1--\u9910\u684c\u6905
p203
I0
sV\u5c0f\u8bf4--\u5916\u56fd\u5c0f\u8bf4--\u5176\u4ed6\u56fd\u5bb6
p204
I0
sV\u4e66\u623f\u5bb6\u5177--\u4e66\u67dc\u4e66\u67b6
p205
I4
sV\u6210\u529f/\u52b1\u5fd7--\u4eba\u5728\u804c\u573a--\u65b0\u4eba\u6307\u5bfc/\u57f9\u8bad
p206
I0
sV\u5916\u8bed --\u82f1\u8bed\u8bfb\u7269--\u4e66\u866b\u7cfb\u5217
p207
I0
sV\u5730\u65b9\u7279\u4ea7--\u897f\u5317
p208
I0
sV\u7537\u978b--\u9774\u5b50
p209
I2
sV\u5fc3\u7406\u5b66--\u5fc3\u7406\u767e\u79d1
p210
I3
sV\u5a74\u513f\u73a9\u5177--\u6e38\u6cf3\u7528\u54c1
p211
I0
sV\u6295\u8d44\u7406\u8d22--\u7406\u8d22\u6280\u5de7
p212
I65
sV\u751f\u6d3b\u7535\u5668--\u7535\u70ed\u6bef/\u7535\u70ed\u888b
p213
I0
sV\u5916\u8bed --\u82f1\u8bed\u4e13\u9879\u8bad\u7ec3--\u5b66\u4e60\u65b9\u6cd5
p214
I0
sV\u7ae5\u88c5--\u5916\u5957
p215
I2
sV\u6237\u5916\u88c5\u5907--\u624b\u6756/\u9632\u62a4\u5177
p216
I0
sV\u6237\u5916\u88c5\u5907--\u6237\u5916\u57ab\u5b50
p217
I12
sV\u5b55\u5987\u88c5/\u5b55\u4ea7\u5987\u7528\u54c1--\u4ea7\u540e\u6062\u590d\u7626\u8eab
p218
I0
sV\u8336--\u666e\u6d31\u8336
p219
I16
sV\u5386\u53f2--\u5386\u53f2\u666e\u53ca\u8bfb\u7269--\u4e16\u754c\u5404\u56fd\u548c\u5730\u533a\u53f2
p220
I0
sV\u5bb6\u5c45\u5bb6\u7eba--\u6bdb\u5dfe\u88ab/\u6bef
p221
I3
sV\u52a8\u6f2b/\u5e7d\u9ed8--\u5927\u9646\u6f2b\u753b--\u5176\u4ed6\u5927\u9646\u6f2b\u753b
p222
I10
sV\u6e05\u6d01\u62a4\u7406--\u4e00\u6b21\u6027\u7528\u54c1
p223
I0
sV\u5a74\u5e7c\u513f\u670d\u9970(0-2\u5c81)--\u4e0a\u8863
p224
I0
sV\u6210\u529f/\u52b1\u5fd7--\u6210\u529f/\u6fc0\u52b1--\u65f6\u95f4\u7ba1\u7406
p225
I0
sV\u4e2a\u4eba\u62a4\u7406--\u536b\u751f\u62a4\u7406--\u536b\u751f\u68c9
p226
I0
sV\u6295\u8d44\u7406\u8d22--\u5973\u6027\u7406\u8d22
p227
I61
sV\u4f20\u8bb0--\u653f\u6cbb\u4eba\u7269--\u515a\u548c\u56fd\u5bb6\u9886\u5bfc\u4eba
p228
I0
sV\u6027\u798f\u6210\u4eba--\u6da6\u6ed1\u6cb9
p229
I0
sV\u6587\u5316--\u4e16\u754c\u5404\u56fd\u6587\u5316--\u897f\u65b9\u6587\u5316
p230
I0
sV\u54f2\u5b66/\u5b97\u6559--\u54f2\u5b66--\u4f26\u7406\u5b66
p231
I0
sV\u5bb6\u5c45\u5bb6\u7eba--\u5e8a\u54c1\u6563\u4ef6--\u5e8a\u5355
p232
I4
sV\u5fc3\u7406\u5b66--\u8272\u5f69\u5fc3\u7406\u5b66
p233
I3
sV\u52a8\u6f2b/\u5e7d\u9ed8--\u65e5\u97e9\u6f2b\u753b--\u97e9\u56fd\u6f2b\u753b
p234
I0
sV\u5582\u517b\u7528\u54c1--\u5976\u74f6--\u5bbd\u53e3\u5f84\u5976\u74f6
p235
I1
sV\u7f24\u7eb7\u5f69\u5986--\u773c\u5986--\u776b\u6bdb\u818f/\u776b\u6bdb\u589e\u957f\u6db2
p236
I0
sV\u79d1\u666e\u8bfb\u7269--\u751f\u6001\u73af\u5883--\u8d44\u6e90
p237
I0
sV\u7ae5\u4e66--\u5a74\u513f\u8bfb\u7269--\u6302\u56fe\u5361\u7247
p238
I0
sV\u8fd0\u52a8\u5668\u6750--\u5176\u4ed6\u5065\u8eab\u8fd0\u52a8
p239
I3
sV\u513f\u7ae5\u6587\u5177--\u513f\u7ae5\u7ed8\u753b
p240
I3
sV\u9884\u9632\u4fdd\u5065--\u53c2\u8338\u517b\u751f
p241
I0
sV\u70f9\u996a/\u7f8e\u98df--\u897f\u9910\u6599\u7406
p242
I0
sV\u6587\u5b66--\u6587\u96c6
p243
I10
sV\u5750\u57ab/\u811a\u57ab--\u4e13\u8f66\u4e13\u7528\u5ea7\u5957
p244
I3
sV\u5973\u58eb\u670d\u88c5--\u886c\u886b
p245
I5
sV\u653f\u6cbb/\u519b\u4e8b--\u653f\u6cbb--\u515a\u653f\u8bfb\u7269
p246
I0
sV\u7537\u58eb\u4e13\u533a--\u8138\u90e8\u62a4\u7406
p247
I0
sV\u5b55\u5987\u88c5/\u5b55\u4ea7\u5987\u7528\u54c1--\u5b55\u5988\u7528\u54c1
p248
I0
sV\u53a8\u623f\u7528\u54c1--\u4fdd\u9c9c\u6536\u7eb3--\u53a8\u623f\u6536\u7eb3
p249
I0
sV\u5386\u53f2--\u4e2d\u56fd\u53f2--\u4e2d\u534e\u4eba\u6c11\u5171\u548c\u56fd\u53f2\uff081949~
p250
I0
sV\u7ae5\u4e66--\u8fdb\u53e3\u513f\u7ae5\u4e66--Stories \u56fe\u753b\u6545\u4e8b\u4e66
p251
I0
sV\u4e2a\u4eba\u62a4\u7406--\u6c90\u6d74\u7528\u54c1--\u6c90\u6d74\u5957\u88c5
p252
I0
sV\u4f11\u95f2\u96f6\u98df--\u6d77\u5473\u7cfb\u5217
p253
I0
sV\u5973\u978b--\u9774\u5b50
p254
I6
sV\u5916\u8bed --FOR \u8001\u5916 --\u540d\u4eba\u4e0e\u540d\u8457
p255
I0
sV\u4e24\u6027\u5173\u7cfb--\u604b\u7231
p256
I36
sV\u5c0f\u8bf4--\u4e16\u754c\u540d\u8457--\u5176\u4ed6\u5730\u533a
p257
I0
sV\u7ae5\u4e66--\u5e73\u88c5\u56fe\u753b\u4e66--\u4e2d\u56fd\u539f\u521b
p258
I0
sV\u65c5\u6e38/\u5730\u56fe--\u65c5\u6e38\u968f\u7b14
p259
I10
sV\u6e05\u6d01\u62a4\u7406--\u6740\u866b\u9a71\u868a
p260
I0
sV\u653f\u6cbb/\u519b\u4e8b--\u653f\u6cbb--\u653f\u6cbb\u7406\u8bba
p261
I0
sV\u5367\u5ba4\u5bb6\u5177--\u5e8a\u57ab
p262
I4
sV\u7cbe\u54c1\u6728\u9970--\u6302\u4ef6/\u6446\u4ef6/\u5176\u5b83
p263
I0
sV\u751f\u6d3b\u7535\u5668--\u7a7a\u6c14\u51c0\u5316\u5668
p264
I0
sV\u5750\u57ab/\u811a\u57ab--\u901a\u7528\u5ea7\u5957
p265
I3
sV\u5976\u7c89--\u4e00\u6bb5\u5976\u7c89
p266
I0
sV\u70f9\u996a/\u7f8e\u98df--\u5bb6\u5e38\u83dc\u8c31--\u5bb6\u5e38\u83dc
p267
I0
sV\u5065\u5eb7\u5668\u68b0--\u8840\u7cd6\u4eea
p268
I0
sV\u54f2\u5b66/\u5b97\u6559--\u5b97\u6559--\u4f0a\u65af\u5170\u6559
p269
I0
sV\u65c5\u6e38/\u5730\u56fe--\u56fd\u5185\u81ea\u52a9\u65c5\u6e38\u6307\u5357 --\u56fd\u5185\u6e38(\u7efc\u5408)
p270
I21
sV\u8f66\u7528\u7535\u5668--\u9006\u53d8\u5668/\u5e94\u6025\u7535\u6e90
p271
I0
sV\u8f66\u9970\u7cbe\u54c1--\u8f66\u5185\u9970\u54c1
p272
I6
sV\u5386\u53f2--\u53e3\u8ff0\u53f2
p273
I0
sV\u5fc3\u7406\u5b66--\u50ac\u7720
p274
I0
sV\u6e05\u6d01\u62a4\u7406--\u536b\u6d74\u7528\u54c1
p275
I4
sV\u6210\u529f/\u52b1\u5fd7--\u6210\u529f/\u6fc0\u52b1--\u6548\u7387\u4e0e\u80fd\u529b
p276
I0
sV\u9884\u9632\u4fdd\u5065--\u8336\u996e\u4fdd\u5065
p277
I0
sV\u624b\u673a\u914d\u4ef6--iphone\u914d\u4ef6
p278
I2
sV\u5582\u517b\u7528\u54c1--\u5976\u5634--\u6807\u51c6\u5976\u5634
p279
I0
sV\u7ae5\u4e66--\u4e2d\u56fd\u513f\u7ae5\u6587\u5b66--\u4f20\u8bb0\u6587\u5b66
p280
I0
sV\u6c7d\u8f66\u7f8e\u5bb9--\u8721\u626b/\u63b8\u5b50
p281
I0
sV\u6210\u529f/\u52b1\u5fd7--\u9752\u5c11\u5e74\u52b1\u5fd7--\u4f18\u79c0\u699c\u6837/\u540d\u4eba\u6307\u70b9
p282
I0
sV\u4e2d\u5c0f\u5b66\u6559\u8f85--\u5b66\u4e60\u65b9\u6cd5/\u62a5\u8003
p283
I122
sV\u5973\u978b--\u4f11\u95f2\u978b
p284
I6
sV\u9633\u53f0\u6237\u5916--\u6237\u5916\u5bb6\u5177
p285
I0
sV\u5fc3\u7406\u5b66--\u5fc3\u7075\u7597\u6108
p286
I66
sV\u8425\u517b\u5065\u5eb7--\u7ef4\u751f\u7d20\u7c7b
p287
I6
sV\u624b\u673a\u914d\u4ef6--\u624b\u673a\u8d34\u819c
p288
I0
sV\u76ca\u667a\u73a9\u5177--\u79d1\u6559\u73a9\u5177
p289
I1
sV\u6587\u5177--\u529e\u516c\u6587\u5177--\u6587\u4ef6\u6574\u7406
p290
I10
sV\u52a8\u6f2b/\u5e7d\u9ed8--\u6e2f\u53f0\u6f2b\u753b--\u51e0\u7c73
p291
I0
sV\u4fdd\u5065/\u517b\u751f--\u5973\u6027/\u513f\u7ae5
p292
I33
sV\u793e\u4f1a\u79d1\u5b66--\u65b0\u95fb\u4f20\u64ad\u51fa\u7248--\u4f20\u64ad\u7406\u8bba
p293
I0
sV\u5065\u5eb7\u5668\u68b0--\u7f8e\u5bb9/\u7f8e\u817f/\u7f8e\u4f53
p294
I0
sV\u54f2\u5b66/\u5b97\u6559--\u54f2\u5b66--\u5112\u5bb6
p295
I0
sV\u4e2a\u4eba\u62a4\u7406--\u6c90\u6d74\u7528\u54c1--\u6d74\u76d0
p296
I0
sV\u4e2d\u5c0f\u5b66\u6559\u8f85--\u6559\u5e08\u7528\u4e66--\u6559\u80b2\u7406\u8bba/\u6559\u80b2\u4e3b\u5f20
p297
I0
sV\u6587\u5b66--\u540d\u5bb6\u4f5c\u54c1
p298
I33
sV\u5386\u53f2--\u53f2\u5b66\u7406\u8bba--\u5386\u53f2\u7814\u7a76
p299
I0
sV\u5b55\u5a74\u6d17\u62a4--\u6d17\u53d1\u9732
p300
I0
sV\u6210\u529f/\u52b1\u5fd7--\u60c5\u5546/\u60c5\u7eea\u7ba1\u7406--\u81ea\u6211\u8c03\u8282
p301
I0
sV\u4f20\u8bb0--\u5bb6\u65cf\u7814\u7a76/\u8c31\u7cfb
p302
I0
sV\u8336--\u7ea2\u8336
p303
I15
sV\u6210\u529f/\u52b1\u5fd7--\u52b1\u5fd7\u7ecf\u5178\u8457\u4f5c--\u5218\u5889
p304
I0
sV\u7ae5\u4e66--\u5916\u56fd\u513f\u7ae5\u6587\u5b66--\u6210\u957f/\u6821\u56ed\u5c0f\u8bf4
p305
I0
sV\u5fc3\u7406\u5b66--\u5fc3\u7406\u5b66\u5165\u95e8
p306
I0
sV\u5065\u5eb7\u5668\u68b0--\u8db3\u6d74\u76c6
p307
I0
sV\u65e5\u5e38\u62a4\u7406/\u5065\u5eb7\u5b89\u5168--\u9632\u649e/\u9632\u89e6\u7535/\u95e8\u5361
p308
I0
sV\u7ae5\u88c5--\u9a6c\u7532/\u80cc\u5fc3
p309
I5
sV\u5ba2\u5385\u5bb6\u5177--\u978b\u67dc
p310
I0
sV\u706f\u5177\u7167\u660e--\u5c0f\u591c\u706f
p311
I3
sVdangdang baby--\u5b9d\u5b9d\u793c\u76d2
p312
I0
sV\u5b55\u4ea7/\u80ce\u6559--\u80ce\u6559
p313
I48
sV\u50a8\u7269\u5bb6\u5177--\u978b\u67b6
p314
I0
sV\u4e2a\u4eba\u62a4\u7406--\u5934\u53d1\u62a4\u7406--\u6d17\u62a4\u5957\u88c5
p315
I0
sV\u7ae5\u4e66--\u5a74\u513f\u8bfb\u7269--\u8ba4\u77e5\u4e66
p316
I0
sV\u80b2\u513f/\u65e9\u6559--\u5a74\u5e7c\u513f\u996e\u98df\u8425\u517b
p317
I0
sV\u706f\u5177\u7167\u660e--\u5438\u9876\u706f
p318
I0
sV\u4f20\u8bb0--\u5f71\u89c6\u660e\u661f--\u5916\u56fd\u5f71\u89c6\u660e\u661f
p319
I0
sV\u793c\u54c1--\u521b\u610f\u793c\u54c1
p320
I12
sV\u5a74\u5e7c\u513f\u670d\u9970(0-2\u5c81)--\u722c\u670d/\u54c8\u8863
p321
I0
sV\u4eb2\u5b50/\u5bb6\u6559--\u5bb6\u6559\u65b9\u6cd5
p322
I86
sV\u5bb6\u5c45\u5bb6\u7eba--\u6bdb\u5dfe/\u6d74\u5dfe--\u6d74\u8863
p323
I7
sV\u4eb2\u5b50/\u5bb6\u6559--\u5bb6\u6559\u7406\u8bba
p324
I32
sV\u7ba1\u7406--\u4e00\u822c\u7ba1\u7406\u5b66--\u7ba1\u7406\u5b66
p325
I0
sV\u5916\u8bbe\u4ea7\u54c1--\u9f20\u6807
p326
I0
sV\u53a8\u623f\u7535\u5668--\u591a\u7528\u9014\u9505
p327
I0
sV\u65e5\u5e38\u62a4\u7406/\u5065\u5eb7\u5b89\u5168--\u6d74\u76c6/\u6d74\u5e8a
p328
I0
sV\u70f9\u996a/\u7f8e\u98df--\u5730\u65b9\u7f8e\u98df
p329
I0
sV\u7ae5\u4e66--\u5916\u56fd\u513f\u7ae5\u6587\u5b66--\u6865\u6881\u4e66
p330
I0
sV\u7ae5\u4e66--\u5a74\u513f\u8bfb\u7269--\u7eb8\u677f\u4e66
p331
I0
sV\u5973\u978b--\u8c46\u8c46\u978b
p332
I6
sV\u793e\u4f1a\u79d1\u5b66--\u65b0\u95fb\u4f20\u64ad\u51fa\u7248--\u65b0\u95fb\u91c7\u8bbf\u4e0e\u5199\u4f5c
p333
I0
sV\u7ba1\u7406--\u521b\u4e1a\u4f01\u4e1a\u4e0e\u4f01\u4e1a\u5bb6--\u4e2a\u4eba\u521b\u4e1a
p334
I57
sV\u8fdb\u53e3\u98df\u54c1--\u4f11\u95f2\u5c0f\u98df
p335
I0
sV\u54f2\u5b66/\u5b97\u6559--\u54f2\u5b66--\u903b\u8f91\u5b66
p336
I42
sV\u4fdd\u5065/\u517b\u751f--\u4e2d\u533b\u517b\u751f--\u4e2d\u533b\u7cbe\u534e
p337
I0
sV\u65e5\u5e38\u62a4\u7406/\u5065\u5eb7\u5b89\u5168--\u7406\u53d1\u5668
p338
I0
sV\u8f66\u9970\u7cbe\u54c1--\u8f66\u5185\u7a7a\u6c14\u51c0\u5316
p339
I0
sV\u7ae5\u4e66--\u4e2d\u56fd\u513f\u7ae5\u6587\u5b66--\u5e7b\u60f3\u5c0f\u8bf4
p340
I0
sV\u653f\u6cbb/\u519b\u4e8b--\u519b\u4e8b--\u4e16\u754c\u5404\u56fd\u519b\u4e8b
p341
I0
sV\u5957\u88c5--\u5176\u4ed6
p342
I0
sV\u6587\u5b66--\u5916\u56fd\u968f\u7b14
p343
I2
sV\u4f20\u8bb0--\u827a\u672f\u5bb6--\u5176\u4ed6
p344
I0
sV\u7ae5\u4e66--\u52b1\u5fd7/\u6210\u957f
p345
I63
sV\u8336--\u82b1\u8336/\u82b1\u679c\u8336
p346
I17
sV\u5976\u7c89--\u4e8c\u6bb5\u5976\u7c89
p347
I5
sV\u793e\u4f1a\u79d1\u5b66--\u7ecf\u5178\u540d\u5bb6\u4f5c\u54c1\u96c6
p348
I0
sV\u6210\u529f/\u52b1\u5fd7--\u540d\u4eba\u52b1\u5fd7
p349
I0
sV\u5582\u517b\u7528\u54c1--\u5976\u5634--\u5bbd\u53e3\u5f84\u5976\u5634
p350
I0
sV\u79ef\u6728\u62fc\u63d2--\u76ca\u667a\u79ef\u6728
p351
I1
sV\u6587\u5316--\u4e2d\u56fd\u6587\u5316--\u8282\u65e5\u6587\u5316\u4e0e\u4eea\u5f0f
p352
I0
sV\u52a8\u6f2b/\u5e7d\u9ed8--\u6e2f\u53f0\u6f2b\u753b--\u8521\u5fd7\u5fe0
p353
I0
sV\u5c0f\u8bf4--\u60c5\u611f --\u5176\u4ed6  
p354
I10
sV\u7ecf\u6d4e--\u7ecf\u6d4e\u53f2 
p355
I0
sV\u7ba1\u7406--\u521b\u4e1a\u4f01\u4e1a\u4e0e\u4f01\u4e1a\u5bb6--\u4f01\u4e1a\u5185\u90e8\u9769\u65b0
p356
I0
sV\u7ecf\u6d4e--\u5404\u90e8\u95e8\u7ecf\u6d4e --\u65c5\u6e38\u7ecf\u6d4e \u9152\u5e97\u7ba1\u7406 
p357
I0
sV\u6e2f\u53f0\u5716\u66f8--\u4eba\u6587\u793e\u79d1--\u54f2\u5b66/\u5b97\u6559
p358
I0
sV\u7ae5\u4e66--\u4e2d\u56fd\u513f\u7ae5\u6587\u5b66--\u6210\u957f/\u6821\u56ed\u5c0f\u8bf4
p359
I15
sV\u5973\u978b--\u5e06\u5e03\u978b
p360
I6
sV\u5c3f\u88e4--\u7eb8\u5c3f\u88e4/\u7247
p361
I5
sV\u624b\u673a\u914d\u4ef6--\u624b\u673a\u4fdd\u62a4\u5957
p362
I2
sV\u6237\u5916\u88c5\u5907--\u671b\u8fdc\u955c
p363
I0
sV\u65f6\u5c1a/\u7f8e\u5986--\u62a4\u80a4/\u7f8e\u5bb9\u6574\u5f62
p364
I0
sV\u5fc3\u7406\u5b66--\u79ef\u6781\u5fc3\u7406\u5b66
p365
I86
sV\u793e\u4f1a\u79d1\u5b66--\u793e\u4f1a\u79d1\u5b66\u603b\u8bba
p366
I24
sV\u8336--\u7eff\u8336
p367
I6
sV\u5fc3\u7406\u5b66--\u5fc3\u7406\u5b66\u7406\u8bba\u4e0e\u7814\u7a76--\u7cbe\u795e\u5206\u6790
p368
I0
sV\u5b55\u5a74\u6e05\u6d01--\u8863\u7269\u67d4\u987a
p369
I0
sV\u65f6\u5c1a/\u7f8e\u5986--\u7626\u8eab\u7f8e\u4f53
p370
I39
sV\u6bdb\u7ed2\u73a9\u5177--\u6bdb\u7ed2\u516c\u4ed4
p371
I3
sV\u4eb2\u5b50/\u5bb6\u6559--\u5fc3\u7406\u758f\u5bfc
p372
I0
sV\u5386\u53f2--\u5730\u65b9\u53f2\u5fd7
p373
I0
sV\u533b\u5b66--\u9884\u9632\u533b\u5b66/\u536b\u751f\u5b66--\u5176\u4ed6
p374
I0
sV\u7ba1\u7406--\u4e00\u822c\u7ba1\u7406\u5b66--\u7ecf\u8425\u7ba1\u7406
p375
I0
sV\u8f85\u98df--\u8425\u517b\u7c73/\u9762
p376
I22
sV\u5bb6\u5c45\u5bb6\u7eba--\u5176\u5b83
p377
I0
sV\u7ae5\u4e66--\u76ca\u667a\u6e38\u620f--\u4e92\u52a8\u6e38\u620f\u4e66
p378
I0
sV\u6210\u529f/\u52b1\u5fd7--\u6027\u683c\u4e0e\u4e60\u60ef--\u6027\u683c
p379
I3
sV\u6237\u5916\u670d\u9970--\u901f\u5e72\u8863\u88e4
p380
I0
sV\u6210\u529f/\u52b1\u5fd7--\u9752\u5c11\u5e74\u52b1\u5fd7--\u6210\u529f/\u6210\u624d
p381
I88
sV\u5b55\u5a74\u6d17\u62a4--\u5b55\u5988\u54aa\u6d17\u62a4--\u9762\u90e8\u62a4\u7406
p382
I5
sV\u5582\u517b\u7528\u54c1--\u56f4\u5634/\u7f69\u8863
p383
I0
sV\u4fdd\u5065/\u517b\u751f--\u4e2d\u8001\u5e74\u517b\u751f
p384
I0
sV\u5c0f\u8bf4--\u8d22\u7ecf
p385
I0
sV\u7f24\u7eb7\u5f69\u5986--\u5507\u5986--\u5507\u818f
p386
I0
sV\u5bb6\u5c45\u5bb6\u7eba--\u5e8a\u54c1\u6563\u4ef6--\u88ab\u7f69
p387
I4
sV\u5367\u5ba4\u5bb6\u5177--\u5e8a
p388
I0
sV\u914d\u9970/\u7528\u54c1--\u889c\u5b50
p389
I0
sV\u529f\u80fd\u7bb1\u5305--\u65c5\u884c\u5305
p390
I0
sV\u5750\u57ab/\u811a\u57ab--\u56db\u5b63\u5ea7\u57ab
p391
I3
sV\u7537\u58eb\u670d\u88c5--\u5916\u5957
p392
I7
sV\u793e\u4f1a\u79d1\u5b66--\u8bed\u8a00\u6587\u5b57--\u516c\u6587\u5199\u4f5c
p393
I0
sV\u793e\u4f1a\u79d1\u5b66--\u65b0\u95fb\u4f20\u64ad\u51fa\u7248--\u5176\u4ed6
p394
I0
sV\u7537\u978b--\u51c9\u978b
p395
I6
sV\u706f\u5177\u7167\u660e--\u5149\u6e90
p396
I0
sV\u53a8\u623f\u7535\u5668--\u7535\u78c1\u7089
p397
I0
sV\u82f9\u679c/\u914d\u4ef6--iPad\u914d\u4ef6
p398
I0
sV\u52a8\u6f2b/\u5e7d\u9ed8--\u6b27\u7f8e\u6f2b\u753b--\u5176\u4ed6\u6b27\u7f8e\u6f2b\u753b
p399
I33
sV\u7ae5\u4e66--\u52a8\u6f2b/\u5361\u901a--\u6f2b\u753b
p400
I0
sV\u6210\u529f/\u52b1\u5fd7--\u9752\u5c11\u5e74\u52b1\u5fd7--\u54c1\u5fb7/\u60c5\u611f
p401
I0
sV\u5c0f\u8bf4--\u4f5c\u54c1\u96c6--\u7efc\u5408
p402
I0
sV\u65c5\u6e38/\u5730\u56fe--\u56fd\u5916\u81ea\u52a9\u65c5\u6e38\u6307\u5357 --\u56fd\u5916\u6e38(\u7efc\u5408) 
p403
I0
sV\u7537\u58eb\u670d\u88c5--POLO\u886b
p404
I10
sV\u7537\u978b--\u5546\u52a1\u4f11\u95f2\u978b
p405
I6
sV\u4f20\u8bb0--\u6587\u5b66\u5bb6
p406
I1
sV\u5eb7\u590d\u62a4\u7406--\u8f6e\u6905\u62d0\u6756
p407
I0
sV\u5a74\u513f\u73a9\u5177--\u5a74\u513f\u5e03\u4e66
p408
I0
sV\u4eb2\u5b50/\u5bb6\u6559--\u7d20\u8d28\u6559\u80b2
p409
I0
sV\u793e\u4f1a\u79d1\u5b66--\u65b0\u95fb\u4f20\u64ad\u51fa\u7248--\u7f16\u8f91\u5de5\u4f5c
p410
I0
sV\u5582\u517b\u7528\u54c1--\u5976\u74f6--\u6807\u51c6\u5976\u74f6
p411
I0
sV\u6e05\u6d01\u62a4\u7406--\u5176\u5b83
p412
I4
sV\u6587\u5b66--\u620f\u5267
p413
I0
sV\u5176\u4ed6
p414
I0
sV\u6210\u529f/\u52b1\u5fd7--\u5904\u4e16\u5b66--\u4e3a\u4eba\u5904\u4e16
p415
I0
sV\u70f9\u996a/\u7f8e\u98df--\u8336\u9152\u996e\u6599--\u5496\u5561
p416
I0
sV\u5c0f\u8bf4--\u519b\u4e8b
p417
I0
sV\u5c0f\u8bf4--\u4fa6\u63a2/\u60ac\u7591/\u63a8\u7406
p418
I9
sV\u7ae5\u4e66--\u5a74\u513f\u8bfb\u7269--\u56fe\u753b\u6545\u4e8b\u4e66
p419
I0
sV\u8f66\u7528\u7535\u5668--\u8f66\u7528\u5438\u5c18\u5668
p420
I0
sV\u7537\u978b--\u6237\u5916\u4f11\u95f2\u978b
p421
I6
sV\u6bdb\u7ed2\u73a9\u5177--\u5e03\u827a\u73a9\u5177
p422
I66
sV\u6210\u529f/\u52b1\u5fd7--\u5fc3\u7075\u4e0e\u4fee\u517b--\u5e78\u798f/\u5feb\u4e50
p423
I40
sV\u4f20\u8bb0--\u9886\u8896\u9996\u8111
p424
I0
sV\u65f6\u5c1a/\u7f8e\u5986--\u670d\u9970\u642d\u914d/\u914d\u9970
p425
I0
sV\u7ae5\u4e66--\u5916\u56fd\u513f\u7ae5\u6587\u5b66--\u7ae5\u8bdd\u6545\u4e8b
p426
I6
sV\u5185\u8863\u889c\u54c1--\u5851\u8eab
p427
I0
sV\u529e\u516c\u7528\u54c1--\u7b14\u7c7b
p428
I4
sV\u5bb6\u5ead/\u5bb6\u5c45--\u5bb6\u88c5\u65b9\u6cd5\u6307\u5bfc
p429
I0
sV\u7f24\u7eb7\u5f69\u5986--\u5e95\u5986--\u5378\u5986
p430
I3
sV\u7ae5\u88c5--\u88e4\u5b50
p431
I5
sV\u8425\u517b\u54c1--\u9c7c\u6cb9\u7c7b
p432
I0
sV\u5976\u7c89--\u5b55\u4ea7\u5987\u5976\u7c89
p433
I0
sV\u53a8\u623f\u7528\u54c1--\u53a8\u623f\u6742\u4ef6--\u7f6e\u7269\u67b6
p434
I4
sV\u5b55\u5a74\u6d17\u62a4--\u53e3\u8154\u62a4\u7406
p435
I0
sV\u7f8e\u5bb9\u62a4\u80a4--\u723d\u80a4
p436
I2
sV\u5bb6\u5c45\u5bb6\u7eba--\u6bdb\u5dfe/\u6d74\u5dfe--\u5dfe\u54c1\u5957\u88c5
p437
I6
sV\u5a74\u5e7c\u513f\u670d\u9970(0-2\u5c81)--\u914d\u9970/\u7528\u54c1
p438
I2
sV\u4f20\u8bb0--\u4eba\u7269\u5408\u96c6
p439
I31
sV\u7ae5\u978b--\u5b66\u6b65\u978b
p440
I0
sV\u5bb6\u5c45\u5bb6\u7eba--\u88ab\u5b50
p441
I1
sV\u4e2d\u5c0f\u5b66\u6559\u8f85--\u4e03\u5e74\u7ea7--\u8bed\u6587
p442
I0
sV\u7ba1\u7406--\u4e00\u822c\u7ba1\u7406\u5b66--\u9886\u5bfc\u5b66
p443
I0
sV\u52a8\u6f2b/\u5e7d\u9ed8--\u5927\u9646\u6f2b\u753b--\u7206\u7b11/\u751f\u6d3b
p444
I23
sV\u6e05\u6d01\u62a4\u7406--\u5783\u573e\u6536\u7eb3
p445
I1
sV\u5582\u517b\u7528\u54c1--\u5b66\u996e\u676f/\u6c34\u58f6--\u6c34\u676f
p446
I0
sV\u5750\u57ab/\u811a\u57ab--\u4e13\u8f66\u4e13\u7528\u5ea7\u57ab
p447
I0
sV\u5b55\u4ea7/\u80ce\u6559--\u5b55\u671f
p448
I32
sV\u7ae5\u4e66--\u79d1\u666e/\u767e\u79d1--\u79d1\u666e
p449
I55
sV\u76ca\u667a\u73a9\u5177--\u7f24\u7eb7\u5f69\u6ce5
p450
I4
sV\u4f11\u95f2\u96f6\u98df--\u575a\u679c/\u7092\u8d27
p451
I12
sV\u513f\u7ae5\u5bb6\u5177--\u513f\u7ae5\u5e8a
p452
I0
sV\u7537\u58eb\u670d\u88c5--\u9488\u7ec7\u886b/\u6bdb\u8863
p453
I0
sV\u65f6\u5c1a\u5bb6\u9970--\u5341\u5b57\u7ee3
p454
I0
sV\u5185\u8863\u889c\u54c1--\u889c\u5b50
p455
I6
sV\u5c0f\u8bf4--\u60c5\u611f --\u8a00\u60c5
p456
I10
sV\u7ba1\u7406--\u5e02\u573a/\u8425\u9500--\u9500\u552e
p457
I24
sV\u6237\u5916\u88c5\u5907--\u4fbf\u643a\u684c\u6905\u5e8a
p458
I0
sV\u7ae5\u4e66--\u5916\u56fd\u513f\u7ae5\u6587\u5b66--\u7ecf\u5178\u540d\u8457\u5c11\u513f\u7248
p459
I0
sV\u52a8\u6f2b/\u5e7d\u9ed8--\u5927\u9646\u6f2b\u753b--\u6821\u56ed/\u6210\u957f
p460
I16
sV\u5c0f\u8bf4--\u4e16\u754c\u540d\u8457--\u4e9a\u6d32
p461
I0
sV\u5b55\u4ea7/\u80ce\u6559--\u5b55\u4ea7\u5987\u5065\u5eb7
p462
I0
sV\u5386\u53f2--\u4e16\u754c\u53f2--\u5927\u6d0b\u6d32\u53f2/\u975e\u6d32\u53f2
p463
I0
sV\u5b55\u5988\u8425\u517b--\u5b55\u671f\u8425\u517b\u54c1
p464
I0
sV\u7ba1\u7406--\u521b\u4e1a\u4f01\u4e1a\u4e0e\u4f01\u4e1a\u5bb6--\u6210\u529f\u79d8\u8bc0
p465
I0
sV\u4f20\u8bb0--\u79d1\u5b66\u5bb6--\u6570\u7406\u79d1\u5b66
p466
I0
sV\u6587\u5177--\u529e\u516c\u6587\u5177--\u684c\u9762\u6587\u5177
p467
I0
sV\u7f8e\u5bb9\u62a4\u80a4--\u773c\u90e8\u62a4\u7406
p468
I3
sV\u4f20\u8bb0--\u56fd\u5b66\u5927\u5e08
p469
I0
sV\u80b2\u513f/\u65e9\u6559--\u65e9\u6559/\u4eb2\u5b50\u4e92\u52a8
p470
I125
sV\u53e4\u7c4d--\u7ecf\u90e8--\u603b\u7c7b
p471
I0
sV\u6e05\u6d01\u62a4\u7406--\u6696\u5b9d\u5b9d
p472
I1
sV\u5750\u57ab/\u811a\u57ab--\u591a\u529f\u80fd\u5ea7\u57ab
p473
I0
sV\u6237\u5916\u88c5\u5907--\u65c5\u6e38\u7528\u54c1
p474
I11
sV\u8fd0\u52a8\u978b--\u8dd1\u6b65\u978b
p475
I0
sV\u670d\u9970\u914d\u4ef6--\u56f4\u5dfe/\u62ab\u80a9/\u4e1d\u5dfe
p476
I6
sV\u7535\u8111\u6574\u673a--\u7b14\u8bb0\u672c\u914d\u4ef6
p477
I0
sV\u53a8\u623f\u7528\u54c1--\u6c34\u5177\u8336\u5177\u9152\u5177--\u4fdd\u6e29\u58f6/\u4fdd\u6e29\u6876
p478
I0
sV\u5b55\u5a74\u6d17\u62a4--\u6c90\u6d74\u9732
p479
I0
sV\u6a21\u578b\u73a9\u5177--\u52a8\u6f2b\u7535\u73a9\u5468\u8fb9
p480
I56
sV\u7f24\u7eb7\u5f69\u5986--\u773c\u5986--\u773c\u7ebf\u7b14/\u773c\u7ebf\u6db2
p481
I0
sV\u9752\u6625\u6587\u5b66--\u60ac\u7591/\u60ca\u609a
p482
I18
sV\u7ba1\u7406--\u5546\u52a1\u6c9f\u901a--\u8c08\u5224\u5b66
p483
I0
sV\u6237\u5916\u670d\u9970--\u51b2\u950b\u8863\u88e4
p484
I12
sV\u5976\u7c89--\u4e09\u6bb5\u5976\u7c89
p485
I0
sV\u5bb6\u5c45\u5bb6\u7eba--\u5e8a\u54c1\u4ef6\u5957
p486
I4
sV\u5b55\u5987\u88c5/\u5b55\u4ea7\u5987\u7528\u54c1--\u9632\u8f90\u5c04\u670d
p487
I0
sV\u5c0f\u8bf4--\u5386\u53f2
p488
I1
sV\u4e2a\u4eba\u62a4\u7406--\u5851\u8eab\u7f8e\u4f53
p489
I0
sV\u6210\u529f/\u52b1\u5fd7--\u52b1\u5fd7\u5c0f\u54c1
p490
I0
sV\u5bb6\u5c45\u5bb6\u7eba--\u9760\u57ab/\u5750\u57ab
p491
I3
sV\u8f85\u98df--\u679c\u852c\u6c41
p492
I0
sV\u6574\u7406\u6536\u7eb3--\u7f6e\u7269\u67b6/\u7bee
p493
I4
sV\u4f20\u8bb0--\u653f\u6cbb\u4eba\u7269--\u4e2d\u56fd\u8fd1\u73b0\u4ee3\u653f\u6cbb\u4eba\u7269
p494
I67
sV\u4eb2\u5b50/\u5bb6\u6559--\u57f9\u80b2\u7537\u5b69
p495
I0
sV\u653f\u6cbb/\u519b\u4e8b--\u653f\u6cbb--\u5916\u4ea4/\u56fd\u9645\u5173\u7cfb
p496
I0
sV\u65f6\u5c1a\u5bb6\u9970--\u6c99\u53d1\u57ab/\u9760\u57ab
p497
I3
sV\u5fc3\u7406\u5b66--\u610f\u8bc6\u4e0e\u6f5c\u610f\u8bc6
p498
I0
sV\u6237\u5916\u88c5\u5907--\u6237\u5916\u773c\u955c
p499
I0
sV\u793e\u4f1a\u79d1\u5b66--\u793e\u4f1a\u5b66--\u793e\u4f1a\u751f\u6d3b\u4e0e\u793e\u4f1a\u95ee\u9898
p500
I0
sV\u6e2f\u53f0\u5716\u66f8--\u4eba\u6587\u793e\u79d1--\u4eba\u7269/\u4f20\u8bb0
p501
I0
sV\u6210\u529f/\u52b1\u5fd7--\u5fc3\u7075\u4e0e\u4fee\u517b--\u5fc3\u667a/\u5fc3\u6001
p502
I0
sV\u65f6\u5c1a/\u7f8e\u5986--\u65f6\u5c1a
p503
I0
sV\u4e2a\u4eba\u62a4\u7406--\u624b\u8db3\u62a4\u7406--\u62a4\u624b\u971c
p504
I3
sV\u4eb2\u5b50\u88c5
p505
I0
sV\u670d\u9970\u914d\u4ef6--\u5176\u4ed6
p506
I0
sV\u82f1\u6587\u539f\u7248\u4e66--\u5c0f\u8bf4 Fiction 
p507
I0
sV\u5c0f\u8bf4--\u5916\u56fd\u5c0f\u8bf4--\u7f8e\u56fd
p508
I0
sVdangdang kids--\u5916\u5957
p509
I0
sV\u6c7d\u8f66\u7f8e\u5bb9--\u6d17\u8f66\u673a
p510
I0
sV\u65c5\u6e38/\u5730\u56fe--\u57ce\u5e02\u81ea\u52a9\u65c5\u6e38\u6307\u5357--\u56fd\u5916
p511
I0
sV\u52a8\u6f2b/\u5e7d\u9ed8--\u753b\u96c6
p512
I0
sV\u7ae5\u4e66--\u4e2d\u56fd\u513f\u7ae5\u6587\u5b66--\u7ae5\u8bdd\u6545\u4e8b
p513
I0
sV\u5eb7\u590d\u62a4\u7406--\u5bb6\u5ead\u62a4\u7406
p514
I4
sV\u6210\u529f/\u52b1\u5fd7--\u9752\u5c11\u5e74\u52b1\u5fd7--\u6210\u957f/\u667a\u6167
p515
I10
sV\u7f24\u7eb7\u5f69\u5986--\u5f69\u5986\u5957\u88c5
p516
I0
sV\u5ba2\u5385\u5bb6\u5177--\u6905\u5b50\u51f3\u5b50
p517
I0
sV\u5a74\u513f\u73a9\u5177--\u611f\u5b98\u8ba4\u77e5
p518
I1
sV\u8425\u517b\u54c1--\u9499\u94c1\u950c
p519
I0
sV\u89c6\u542c\u5f71\u97f3--MP3/MP4
p520
I0
sV\u5065\u5eb7\u5668\u68b0--\u5065\u5eb7\u79e4/\u4f53\u6e29\u8ba1/\u8ba1\u6b65\u5668
p521
I1
sV\u5c0f\u8bf4--\u60c5\u611f --\u60c5\u8272
p522
I33
sV\u4e2a\u4eba\u62a4\u7406--\u4e2a\u62a4\u4fdd\u5065--\u6696\u5b9d\u5b9d
p523
I0
sV\u53a8\u623f\u7535\u5668--\u9762\u5305\u673a
p524
I83
sV\u4e24\u6027\u5173\u7cfb--\u6027
p525
I0
sV\u96e8\u4f1e\u96e8\u5177
p526
I1
sV\u5fc3\u7406\u5b66--\u5fc3\u7406\u5b66\u7406\u8bba\u4e0e\u7814\u7a76--\u884c\u4e3a\u4e3b\u4e49
p527
I0
sV\u6210\u529f/\u52b1\u5fd7--\u9752\u5c11\u5e74\u52b1\u5fd7--\u4e2d\u5b66\u751f\u6307\u5357
p528
I0
sV\u7f8e\u5bb9\u62a4\u80a4--\u7cbe\u534e
p529
I2
sV\u6210\u529f/\u52b1\u5fd7--\u5fc3\u7075\u4e0e\u4fee\u517b--\u54c1\u5fb7/\u4fee\u517b
p530
I0
sV\u76ae\u5e26/\u914d\u4ef6/\u793c\u76d2--\u76ae\u5e26/\u8170\u5e26
p531
I0
sV\u5c0f\u8bf4--\u60ca\u609a/\u6050\u6016
p532
I2
sV\u7ae5\u4e66--\u73a9\u5177\u4e66--\u7ffb\u7ffb\u4e66
p533
I0
sV\u6574\u7406\u6536\u7eb3--\u8863\u67b6\u70eb\u8863\u677f
p534
I7
sV\u8425\u517b\u54c1--\u5988\u5988\u8425\u517b\u54c1
p535
I0
sV\u6027\u798f\u6210\u4eba--\u5b89\u5168\u5957
p536
I0
sV\u5c0f\u8bf4--\u90fd\u5e02
p537
I10
sV\u624b\u673a\u914d\u4ef6--\u624b\u673a\u7535\u6c60
p538
I2
sV\u73cd\u73e0\u6bcd\u8d1d--\u9879\u94fe/\u540a\u5760
p539
I0
sV\u6295\u8d44\u7406\u8d22--\u8bc1\u5238/\u80a1\u7968
p540
I0
sV\u53a8\u623f\u7528\u54c1--\u5200\u53c9\u52fa\u7b77
p541
I14
sV\u5c0f\u8bf4--\u56db\u5927\u540d\u8457--\u7ea2\u697c\u68a6
p542
I0
sV\u7ae5\u8f66\u51fa\u884c--\u513f\u7ae5\u4e09\u8f6e\u8f66
p543
I0
sV\u529e\u516c\u7528\u54c1--\u529e\u516c\u6587\u5177
p544
I1
sV\u9752\u6625\u6587\u5b66--\u7a7f\u8d8a/\u91cd\u751f/\u67b6\u7a7a
p545
I3
sV\u7ba1\u7406--\u4e00\u822c\u7ba1\u7406\u5b66--\u56e2\u961f
p546
I115
sV\u5582\u517b\u7528\u54c1--\u8f85\u98df\u5236\u4f5c\u7528\u5177
p547
I0
sV\u9752\u6625\u6587\u5b66--\u5927\u9646\u539f\u521b
p548
I0
sV\u65f6\u5c1a\u5bb6\u9970--\u7a97\u5e18/\u6d74\u5e18
p549
I0
sV\u53a8\u623f\u7528\u54c1--\u53a8\u623f\u6742\u4ef6--\u53a8\u623f\u914d\u4ef6
p550
I4
sV\u5a03\u5a03\u73a9\u5177--\u8fc7\u5bb6\u5bb6\u73a9\u5177
p551
I0
sV\u76ca\u667a\u73a9\u5177--\u7ed8\u753b\u4e32\u73e0
p552
I1
sV\u4e24\u6027\u5173\u7cfb--\u5a5a\u59fb
p553
I34
sV\u5bb6\u5c45\u5bb6\u7eba--\u6795\u82af\u6795\u5957
p554
I4
sV\u79fb\u52a8\u5b58\u50a8--\u79fb\u52a8\u786c\u76d8
p555
I0
sV\u6210\u529f/\u52b1\u5fd7--\u6027\u683c\u4e0e\u4e60\u60ef--\u6c14\u8d28\u4e0e\u9b45\u529b
p556
I0
sV\u5582\u517b\u7528\u54c1--\u5976\u5634--\u5b89\u629a\u5976\u5634
p557
I0
sV\u53a8\u623f\u7528\u54c1--\u6c34\u5177\u8336\u5177\u9152\u5177--\u5496\u5561\u5177
p558
I0
sV\u80b2\u513f/\u65e9\u6559--\u80b2\u513f\u767e\u79d1
p559
I15
sV\u5065\u8eab\u745c\u4f3d--\u8170\u8179\u953b\u70bc
p560
I0
sV\u529e\u516c\u7528\u54c1--\u5176\u5b83
p561
I1
sV\u54f2\u5b66/\u5b97\u6559--\u54f2\u5b66--\u4e2d\u56fd\u53e4\u4ee3\u54f2\u5b66
p562
I0
sV\u529e\u516c\u8017\u6750--\u7eb8\u7c7b
p563
I29
sV\u5fc3\u7406\u5b66--\u5e94\u7528\u5fc3\u7406\u5b66--\u5de5\u4e1a\u5fc3\u7406\u5b66
p564
I0
sV\u54f2\u5b66/\u5b97\u6559--\u54f2\u5b66--\u54f2\u5b66\u53f2
p565
I0
sV\u7ae5\u4e66--\u73a9\u5177\u4e66--\u7acb\u4f53\u4e66
p566
I0
sV\u624b\u673a\u914d\u4ef6--\u84dd\u7259\u8033\u673a
p567
I2
sV\u6210\u529f/\u52b1\u5fd7--\u4eba\u751f\u54f2\u5b66--\u751f\u6d3b\u54f2\u5b66
p568
I0
sV\u5185\u8863\u889c\u54c1--\u540a\u5e26/\u80cc\u5fc3
p569
I5
sV\u65c5\u6e38/\u5730\u56fe--\u56fd\u5185\u81ea\u52a9\u65c5\u6e38\u6307\u5357 --\u897f\u85cf 
p570
I0
sV\u7ae5\u978b--\u4f11\u95f2\u978b
p571
I2
sV\u53a8\u623f\u7528\u54c1--\u7897\u76d8\u9910\u5177
p572
I0
sV\u65e5\u5e38\u62a4\u7406/\u5065\u5eb7\u5b89\u5168--\u5176\u5b83
p573
I0
sV\u5b55\u5a74\u6d17\u62a4--\u9632\u75f1\u7cfb\u5217
p574
I0
sV\u80b2\u513f/\u65e9\u6559--\u5a74\u5e7c\u513f\u62a4\u7406\u5065\u5eb7
p575
I21
sV\u6574\u7406\u6536\u7eb3--\u7f1d\u7eab\u7528\u54c1
p576
I0
sV\u4fdd\u5065/\u517b\u751f--\u7537\u6027\u517b\u751f
p577
I0
sV\u7f8e\u5bb9\u62a4\u80a4--\u62a4\u80a4\u5957\u88c5
p578
I2
sV\u7f24\u7eb7\u5f69\u5986--\u5e95\u5986--\u7c89\u5e95/\u906e\u7455
p579
I7
sV\u6574\u7406\u6536\u7eb3--\u6574\u7406\u7bb1\u6536\u7eb3\u76d2
p580
I4
sV\u6587\u5316--\u6587\u5316\u53f2
p581
I0
sV\u6d41\u884c\u9970\u54c1--\u8033\u9970
p582
I0
sV\u533b\u5b66--\u5176\u4ed6
p583
I0
sV\u793e\u4f1a\u79d1\u5b66--\u65b0\u95fb\u4f20\u64ad\u51fa\u7248--\u5e7f\u64ad/\u7535\u89c6/\u7535\u5f71
p584
I84
sV\u6e05\u6d01\u62a4\u7406--\u51c0\u5316\u9664\u5473
p585
I5
sV\u81ea\u9a7e\u6e38\u88c5\u5907--\u8f66\u8d34\u7eb8
p586
I0
sV\u6210\u529f/\u52b1\u5fd7--\u4eba\u9645\u4ea4\u5f80--\u8bc6\u4eba\u672f
p587
I107
sV\u5a74\u513f\u73a9\u5177--\u80a2\u4f53\u8bad\u7ec3
p588
I1
sV\u7ba1\u7406--\u5e02\u573a/\u8425\u9500--\u5e7f\u544a
p589
I0
sV\u6570\u7801\u914d\u4ef6--\u79fb\u52a8\u7535\u6e90
p590
I2
sV\u6210\u529f/\u52b1\u5fd7--\u6027\u683c\u4e0e\u4e60\u60ef--\u4e60\u60ef
p591
I0
sV\u4f11\u95f2\u96f6\u98df--\u8089\u5e72\u8089\u677e
p592
I0
sV\u6295\u8d44\u7406\u8d22--\u6295\u8d44\u6307\u5357
p593
I60
sV\u52a8\u6f2b/\u5e7d\u9ed8--\u65e5\u97e9\u6f2b\u753b--\u5176\u4ed6\u65e5\u672c\u6f2b\u753b
p594
I0
sV\u7ae5\u4e66--\u52a8\u6f2b/\u5361\u901a--\u5361\u901a
p595
I0
sV\u7f8e\u5bb9\u62a4\u80a4--\u4e73\u6db2
p596
I2
sV\u4f20\u8bb0--\u653f\u6cbb\u4eba\u7269--\u4e2d\u56fd\u53e4\u4ee3\u653f\u6cbb\u4eba\u7269
p597
I0
sV\u5c0f\u8bf4--\u60c5\u611f --\u5973\u6027
p598
I5
sV\u6d41\u884c\u9970\u54c1--\u9879\u94fe/\u540a\u5760
p599
I0
sV\u7537\u58eb\u670d\u88c5--\u897f\u670d\u5957\u88c5
p600
I5
sV\u50a8\u7269\u5bb6\u5177--\u8863\u5e3d\u67b6
p601
I0
sV\u6709\u58f0\u8bfb\u7269
p602
I0
sV\u65e5\u5e38\u62a4\u7406/\u5065\u5eb7\u5b89\u5168--\u9000\u70ed\u8d34
p603
I0
sV\u5b55\u5987\u88c5/\u5b55\u4ea7\u5987\u7528\u54c1--\u5b55\u5987\u670d\u9970
p604
I6
sV\u4f20\u8bb0--\u4eba\u6587/\u793e\u4f1a\u5b66\u5bb6
p605
I0
sV\u79fb\u52a8\u5b58\u50a8--\uff35\u76d8
p606
I0
sV\u6e05\u6d01\u62a4\u7406--\u6e05\u6d01\u5de5\u5177
p607
I2
sV\u53a8\u623f\u7535\u5668--\u7535\u996d\u7172
p608
I0
sV\u53e4\u7c4d--\u53e4\u7c4d\u6574\u7406--\u4eca\u6ce8\u4eca\u8bd1/\u5168\u6ce8\u5168\u8bd1
p609
I0
sV\u513f\u7ae5\u6587\u5177--\u5b66\u751f\u7528\u54c1
p610
I3
sV\u6cd5\u5f8b--\u53f8\u6cd5\u6848\u4f8b\u4e0e\u53f8\u6cd5\u89e3\u91ca
p611
I0
sV\u793e\u4f1a\u79d1\u5b66--\u793e\u4f1a\u5b66--\u793e\u4f1a\u8c03\u67e5\u4e0e\u793e\u4f1a\u5206\u6790
p612
I52
sV\u5bdd\u5c45\u7528\u54c1--\u6bdb\u5dfe/\u6d74\u5dfe
p613
I7
sV\u6210\u529f/\u52b1\u5fd7--\u4eba\u9645\u4ea4\u5f80--\u6c9f\u901a\u827a\u672f
p614
I102
sV\u6210\u529f/\u52b1\u5fd7--\u53e3\u624d/\u6f14\u8bb2/\u8fa9\u8bba--\u8bf4\u670d\u529b/\u8bf4\u8bdd\u6280\u5de7
p615
I26
sV\u4eb2\u5b50/\u5bb6\u6559--\u4eb2\u5b50\u5173\u7cfb
p616
I28
sV\u7ae5\u4e66--\u5e73\u88c5\u56fe\u753b\u4e66--\u6b27\u7f8e
p617
I0
sV\u624b\u673a
p618
I2
sV\u7ae5\u88c5--\u886c\u886b
p619
I5
sV\u6210\u529f/\u52b1\u5fd7--\u4eba\u5728\u804c\u573a--\u804c\u573a\u4eba\u9645/\u804c\u573a\u667a\u6167
p620
I9
sV\u5bb6\u5c45\u5bb6\u7eba--\u6bdb\u5dfe/\u6d74\u5dfe--\u65b9\u5dfe
p621
I4
sV\u5c0f\u8bf4--\u9b54\u5e7b
p622
I33
sV\u4f11\u95f2\u96f6\u98df--\u997c\u5e72\u7cd5\u70b9
p623
I13
sV\u4f20\u8bb0--\u81ea\u4f20
p624
I59
sV\u6210\u529f/\u52b1\u5fd7--\u4eba\u751f\u54f2\u5b66--\u987a\u5883\u4e0e\u9006\u5883
p625
I0
sV\u4e2a\u4eba\u62a4\u7406--\u7f8e\u5bb9\u5668
p626
I0
sV\u6587\u5b66--\u4e2d\u56fd\u73b0\u5f53\u4ee3\u8bd7\u6b4c
p627
I0
sV\u6210\u529f/\u52b1\u5fd7--\u4eba\u5728\u804c\u573a--\u5de5\u4f5c\u7d20\u517b/\u5458\u5de5\u6fc0\u52b1
p628
I0
sV\u5bb6\u5c45\u5bb6\u7eba--\u5e8a\u54c1\u6563\u4ef6--\u5e8a\u88d9/\u5e8a\u7b20
p629
I4
sV\u5c0f\u8bf4--\u4e61\u571f
p630
I0
sV\u54f2\u5b66/\u5b97\u6559--\u5b97\u6559--\u5b97\u6559\u77e5\u8bc6\u8bfb\u7269
p631
I0
sV\u4eb2\u5b50/\u5bb6\u6559--\u57f9\u80b2\u5973\u5b69
p632
I0
sV\u5b55\u5a74\u6d17\u62a4--\u5b55\u5988\u54aa\u6d17\u62a4--\u8eab\u4f53\u62a4\u7406
p633
I0
sV\u7ae5\u978b--\u5e06\u5e03\u978b/\u677f\u978b
p634
I2
sV\u6237\u5916\u88c5\u5907--\u5782\u9493\u7528\u5177
p635
I0
sV\u5973\u978b--\u9c7c\u5634\u978b
p636
I0
sV\u6210\u529f/\u52b1\u5fd7--\u6027\u683c\u4e0e\u4e60\u60ef--\u4eba\u6027\u4e0e\u4eba\u683c
p637
I0
sV\u7537\u58eb\u670d\u88c5--\u897f\u88e4
p638
I0
sV\u6210\u529f/\u52b1\u5fd7--\u60c5\u5546/\u60c5\u7eea\u7ba1\u7406--\u60c5\u5546\u603b\u8bba
p639
I0
sV\u7ae5\u978b--\u5176\u4ed6
p640
I0
sV\u5bdd\u5c45\u7528\u54c1--\u5e8a\u57ab/\u5e8a\u54c1/\u5e8a\u56f4
p641
I4
sV\u5386\u53f2--\u4e2d\u56fd\u53f2--\u8fd1\u4ee3\u53f2\uff081840-1919\uff09
p642
I0
sV\u5b55\u4ea7/\u80ce\u6559--\u5b55\u671f\u996e\u98df\u6307\u5bfc
p643
I0
sV\u5c0f\u8bf4--\u4e16\u754c\u540d\u8457--\u6b27\u6d32
p644
I10
sV\u53a8\u623f\u7535\u5668--\u7535\u6c34\u58f6/\u70ed\u6c34\u74f6
p645
I0
sV\u7ae5\u88c5--\u6bdb\u8863/\u9488\u7ec7\u886b
p646
I2
sV\u7ae5\u88c5--\u7fbd\u7ed2\u670d/\u68c9\u670d
p647
I2
sV\u5bb6\u5c45\u5bb6\u7eba--\u6bdb\u5dfe/\u6d74\u5dfe--\u9762\u5dfe
p648
I4
sV\u6c7d\u8f66\u7f8e\u5bb9--\u6d17\u8f66\u914d\u4ef6
p649
I4
sV\u5c0f\u8bf4--\u804c\u573a
p650
I16
sV\u6e2f\u53f0\u5716\u66f8--\u6587\u5b66--\u5947\u5e7b/\u63a8\u7406/\u60ca\u609a
p651
I0
sV\u52a8\u6f2b/\u5e7d\u9ed8--\u5927\u9646\u6f2b\u753b--\u79d1\u5e7b/\u6b66\u4fa0/\u7384\u5e7b
p652
I30
sV\u5b55\u4ea7/\u80ce\u6559--\u5b55\u524d\u51c6\u5907
p653
I133
sV\u529e\u516c\u7528\u54c1--\u6587\u4ef6\u7ba1\u7406
p654
I1
sV\u5582\u517b\u7528\u54c1--\u6696\u5976/\u6d88\u6bd2
p655
I0
sV\u7ecf\u6d4e--\u7ecf\u6d4e\u901a\u4fd7\u8bfb\u7269
p656
I0
sV\u53a8\u623f\u7535\u5668--\u69a8\u6c41\u673a/\u6599\u7406\u673a
p657
I0
sV\u5c3f\u88e4--\u9694\u5c3f\u57ab
p658
I0
sV\u9752\u6625\u6587\u5b66--\u53e4\u4ee3\u8a00\u60c5
p659
I4
sV\u79ef\u6728\u62fc\u63d2--\u7acb\u4f53\u62fc\u63d2
p660
I0
sV\u76ca\u667a\u73a9\u5177--\u68cb\u724c\u9b54\u65b9
p661
I13
sV\u5973\u58eb\u670d\u88c5--\u88d9\u88c5
p662
I5
sV\u513f\u7ae5\u6587\u5177--\u4e66\u5199\u5de5\u5177
p663
I12
sV\u7ae5\u978b--\u9774\u5b50/\u96ea\u5730\u9774
p664
I2
sV\u82f1\u6587\u539f\u7248\u4e66--\u5176\u4ed6\u539f\u7248\u4e66--\u73b0\u4ee3\u5c0f\u8bf4
p665
I0
sV\u6237\u5916\u88c5\u5907--\u81ea\u884c\u8f66\u9a91\u884c
p666
I12
sV\u54f2\u5b66/\u5b97\u6559--\u54f2\u5b66--\u54f2\u5b66\u7406\u8bba
p667
I0
sV\u4f20\u8bb0--\u653f\u6cbb\u4eba\u7269--\u5916\u56fd\u653f\u6cbb\u4eba\u7269
p668
I4
sV\u5916\u8bed --\u65e5\u8bed --\u65e5\u8bed\u8bfb\u7269
p669
I0
sV\u6210\u529f/\u52b1\u5fd7--\u51fa\u56fd/\u7559\u5b66
p670
I0
sV\u7537\u58eb\u670d\u88c5--T\u6064
p671
I5
sV\u5efa\u7b51--\u5ba4\u5185\u8bbe\u8ba1/\u88c5\u6f62\u88c5\u4fee--\u4f4f\u5b85/\u5c45\u4f4f\u7a7a\u95f4
p672
I0
sV\u7f8e\u5bb9\u62a4\u80a4--\u6d01\u9762
p673
I2
sV\u6237\u5916\u88c5\u5907--\u6c34\u5177
p674
I15
sV\u5973\u978b--\u62d6\u978b
p675
I0
sV\u65c5\u6e38/\u5730\u56fe--\u65c5\u6e38\u6444\u5f71/\u753b\u518c
p676
I0
sV\u82f1\u6587\u539f\u7248\u4e66--\u6587\u5b66 Literature
p677
I0
sV\u5c0f\u8bf4--\u5b98\u573a
p678
I13
sV\u827a\u672f--\u97f3\u4e50--\u97f3\u4e50\u6b23\u8d4f
p679
I0
sV\u5bb6\u5c45\u5bb6\u7eba--\u868a\u5e10/\u51c9\u5e2d
p680
I1
sV\u5b55\u5a74\u6d17\u62a4--\u62a4\u80a4\u54c1
p681
I2
sV\u7ae5\u978b--\u51c9\u978b
p682
I7
sV\u4f11\u95f2/\u7231\u597d--\u5bb6\u5ead\u56ed\u827a
p683
I0
sV\u5bb6\u5ead/\u5bb6\u5c45--\u5bb6\u4e8b\u7a8d\u95e8
p684
I24
sV\u7f8e\u5bb9\u62a4\u80a4--\u9762\u971c
p685
I2
sV\u82f9\u679c/\u914d\u4ef6--iPhone\u914d\u4ef6
p686
I2
sV\u5c0f\u8bf4--\u4f5c\u54c1\u96c6--\u5916\u56fd
p687
I3
sV\u751f\u6d3b\u7535\u5668--\u52a0\u6e7f\u5668
p688
I8
sV\u5bb6\u5c45\u5bb6\u7eba--\u513f\u7ae5\u5e8a\u54c1--\u6795\u5934
p689
I4
sV\u5fc3\u7406\u5b66--\u5fc3\u7406\u5b66\u7814\u7a76\u65b9\u6cd5\u4e0e\u6280\u672f--\u5fc3\u7406\u6d4b\u91cf\u5b66
p690
I0
sV\u6574\u7406\u6536\u7eb3--\u538b\u7f29\u888b\u9632\u5c18\u7f69
p691
I4
sV\u5b55\u5a74\u6d17\u62a4--\u67d4\u6e7f\u5dfe/\u9762\u5dfe
p692
I1
sV\u5c0f\u8bf4--\u6b66\u4fa0
p693
I0
sV\u7ae5\u4e66--\u5916\u56fd\u513f\u7ae5\u6587\u5b66--\u52a8\u7269\u5c0f\u8bf4
p694
I0
sV\u5eb7\u590d\u62a4\u7406--\u53e3\u7f69
p695
I0
sV\u4eb2\u5b50/\u5bb6\u6559--\u54c1\u683c\u517b\u6210
p696
I0
sV\u521b\u610f\u751f\u6d3b--\u529e\u516c\u6587\u5177
p697
I3
sV\u7ae5\u4e66--\u4e2d\u56fd\u513f\u7ae5\u6587\u5b66--\u8bd7\u6b4c/\u6563\u6587
p698
I6
sV\u6210\u529f/\u52b1\u5fd7--\u5fc3\u7075\u4e0e\u4fee\u517b--\u5fc3\u7075/\u611f\u609f
p699
I10
sV\u827a\u672f--\u7ed8\u753b--\u5404\u79cd\u753b
p700
I0
sV\u79d1\u666e\u8bfb\u7269--\u5b87\u5b99\u77e5\u8bc6
p701
I0
sV\u624b\u5de5/DIY--\u5176\u4ed6
p702
I0
sV\u52a8\u6f2b/\u5e7d\u9ed8--\u6b27\u7f8e\u6f2b\u753b--\u7236\u4e0e\u5b50
p703
I0
sV\u5c0f\u8bf4--\u793e\u4f1a
p704
I9
sV\u9752\u6625\u6587\u5b66--\u53db\u9006/\u6210\u957f
p705
I10
sV\u513f\u7ae5\u6587\u5177--\u513f\u7ae5\u4e66\u5305
p706
I0
sV\u6c7d\u8f66\u7f8e\u5bb9--\u6d17\u8f66\u6db2
p707
I0
sV\u5bb6\u5c45\u5bb6\u7eba--\u513f\u7ae5\u5e8a\u54c1--\u6563\u4ef6
p708
I0
sV\u7ba1\u7406--\u521b\u4e1a\u4f01\u4e1a\u4e0e\u4f01\u4e1a\u5bb6--\u4f01\u4e1a\u5bb6
p709
I0
sV\u706f\u5177\u7167\u660e--\u53f0\u706f
p710
I0
sV\u5973\u58eb\u670d\u88c5--\u9488\u7ec7\u886b/\u6bdb\u8863
p711
I5
sV\u7ecf\u6d4e--\u7ecf\u6d4e\u5b66\u7406\u8bba --\u5176\u4ed6\u7ecf\u6d4e\u5b66\u7406\u8bba 
p712
I0
sV\u653f\u6cbb/\u519b\u4e8b--\u653f\u6cbb--\u4e2d\u56fd\u653f\u6cbb
p713
I80
sV\u54f2\u5b66/\u5b97\u6559--\u54f2\u5b66--\u54f2\u5b66\u77e5\u8bc6\u8bfb\u7269
p714
I3
sV\u4f20\u8bb0--\u5973\u6027\u4eba\u7269
p715
I41
sV\u8fd0\u52a8\u914d\u4ef6--\u8fd0\u52a8\u889c
p716
I0
sV\u4f11\u95f2\u96f6\u98df--\u67a3
p717
I0
sV\u5750\u57ab/\u811a\u57ab--\u590f\u5b63\u51c9\u57ab
p718
I3
sV\u4e2a\u4eba\u62a4\u7406--\u7535\u5439\u98ce
p719
I0
sV\u7ae5\u88c5--\u536b\u8863
p720
I5
sV\u5c0f\u8bf4--\u4e2d\u56fd\u5f53\u4ee3\u5c0f\u8bf4
p721
I0
sV\u5916\u8bed --\u82f1\u8bed\u8bfb\u7269--\u82f1\u6587\u7248
p722
I1
sV\u53a8\u623f\u7535\u5668--\u7535\u997c\u94db/\u714e\u70e4\u673a
p723
I0
sV\u50a8\u7269\u5bb6\u5177--\u5c42\u67b6\u7f6e\u7269\u67b6
p724
I4
sV\u6587\u5316--\u5730\u57df\u6587\u5316--\u534e\u590f\u6587\u5316
p725
I0
sV\u6210\u529f/\u52b1\u5fd7--\u8d22\u5546/\u8d22\u5bcc\u667a\u6167--\u521b\u4e1a\u89c4\u5212
p726
I0
sV\u5973\u58eb\u670d\u88c5--\u5916\u5957
p727
I5
sV\u7537\u58eb\u670d\u88c5--\u725b\u4ed4\u88e4
p728
I12
sV\u7ecf\u6d4e--\u56fd\u9645\u7ecf\u6d4e
p729
I0
sV\u5fc3\u7406\u5b66--\u4eba\u683c\u5fc3\u7406\u5b66
p730
I4
sV\u7ae5\u88c5--\u88d9\u5b50
p731
I2
sV\u6237\u5916\u88c5\u5907--\u6237\u5916\u7167\u660e
p732
I13
sV\u8336--\u4e4c\u9f99\u8336
p733
I33
sV\u5c0f\u8bf4--\u60c5\u611f --\u5bb6\u5ead/\u5a5a\u59fb
p734
I24
sV\u706f\u5177\u7167\u660e--\u6237\u5916\u706f
p735
I12
sV\u52a8\u6f2b/\u5e7d\u9ed8--\u5927\u9646\u6f2b\u753b--\u5bd3\u610f/\u7231\u60c5/\u54f2\u7406
p736
I2
sV\u7ae5\u978b--\u8fd0\u52a8/\u6237\u5916\u978b
p737
I2
sV\u9752\u6625\u6587\u5b66--\u7384\u5e7b/\u65b0\u6b66\u4fa0/\u9b54\u5e7b/\u79d1\u5e7b
p738
I2
sV\u70f9\u996a/\u7f8e\u98df--\u996e\u98df\u6587\u5316
p739
I0
sV\u7ba1\u7406--\u7535\u5b50\u5546\u52a1
p740
I0
sV\u8f85\u98df--\u4f11\u95f2\u98df\u54c1
p741
I0
sV\u4e2d\u5c0f\u5b66\u6559\u8f85--\u8bed\u6587\u9605\u8bfb
p742
I0
sV\u8425\u517b\u54c1--DHA
p743
I0
sV\u4e2a\u4eba\u62a4\u7406--\u9999\u85b0\u7cbe\u6cb9
p744
I2
sV\u53a8\u623f\u7528\u54c1--\u4e00\u6b21\u6027\u9910\u5177
p745
I0
sV\u5185\u8863\u889c\u54c1--\u6253\u5e95
p746
I8
sV\u5386\u53f2--\u4e16\u754c\u53f2--\u4e9a\u6d32\u53f2
p747
I0
sV\u6587\u5177--\u529e\u516c\u6587\u5177--\u7eb8\u7c7b
p748
I0
sV\u8fd0\u52a8\u978b--\u4f11\u95f2\u978b/\u677f\u978b
p749
I0
sV\u6587\u5b66--\u4e2d\u56fd\u73b0\u5f53\u4ee3\u968f\u7b14
p750
I10
sV\u53a8\u623f\u7528\u54c1--\u6c34\u5177\u8336\u5177\u9152\u5177--\u4fdd\u6e29\u676f
p751
I1
sV\u751f\u6d3b\u7535\u5668--\u5176\u5b83
p752
I0
sV\u7ae5\u4e66--\u79d1\u666e/\u767e\u79d1--\u5386\u53f2\u8bfb\u7269
p753
I0
sV\u5b55\u5a74\u6e05\u6d01--\u8863\u7269\u6d17\u6da4
p754
I1
sV\u6237\u5916\u88c5\u5907--\u6237\u5916\u80cc\u5305
p755
I12
sV\u521b\u610f\u751f\u6d3b--\u5c45\u5bb6\u751f\u6d3b
p756
I4
sV\u5a74\u5e7c\u513f\u670d\u9970(0-2\u5c81)--\u4e0b\u8863
p757
I3
sV\u5a74\u5e7c\u513f\u670d\u9970(0-2\u5c81)--\u5a74\u513f\u793c\u76d2
p758
I25
sV\u6210\u529f/\u52b1\u5fd7--\u9752\u5c11\u5e74\u52b1\u5fd7--\u5927\u5b66\u751f\u6307\u5357
p759
I0
sV\u8fd0\u52a8\u914d\u4ef6--\u8fd0\u52a8\u624b\u5957
p760
I16
sV\u53a8\u623f\u7528\u54c1--\u6c34\u5177\u8336\u5177\u9152\u5177--\u8336\u5177
p761
I0
sV\u70f9\u996a/\u7f8e\u98df--\u70d8\u7119\u751c\u54c1
p762
I40
sV\u7ae5\u4e66--\u5916\u56fd\u513f\u7ae5\u6587\u5b66--\u5e7b\u60f3\u5c0f\u8bf4
p763
I0
sV\u54f2\u5b66/\u5b97\u6559--\u54f2\u5b66--\u4e16\u754c\u54f2\u5b66
p764
I0
sV\u7537\u978b--\u62d6\u978b
p765
I6
sV\u9752\u6625\u6587\u5b66--\u7231\u60c5/\u60c5\u611f
p766
I8
sV\u54f2\u5b66/\u5b97\u6559--\u54f2\u5b66--\u4e2d\u56fd\u8fd1\u73b0\u4ee3\u54f2\u5b66
p767
I0
sV\u5a74\u513f\u73a9\u5177--\u513f\u7ae5\u5730\u57ab
p768
I15
sV\u5fc3\u7406\u5b66--\u793e\u4f1a\u5fc3\u7406\u5b66
p769
I0
sV\u6587\u5316--\u6587\u5316\u968f\u7b14
p770
I0
sV\u6210\u529f/\u52b1\u5fd7--\u9752\u5c11\u5e74\u52b1\u5fd7--\u5fc3\u7075\u81ea\u52a9
p771
I0
sV\u5bdd\u5c45\u7528\u54c1--\u51c9\u5e2d/\u868a\u5e10
p772
I0
sV\u4e2d\u5c0f\u5b66\u6559\u8f85--\u5b57\u8bcd\u5178--\u8bed\u6587
p773
I0
sV\u5b55\u4ea7/\u80ce\u6559--\u4ea7\u540e\u7ba1\u7406
p774
I23
sV\u6587\u5b66--\u6587\u5b66\u7406\u8bba
p775
I2
sV\u6587\u5316--\u4e2d\u56fd\u6587\u5316--\u5176\u4ed6
p776
I0
sV\u4f20\u8bb0--\u8d22\u7ecf\u4eba\u7269--\u4e2d\u56fd\u8d22\u7ecf\u4eba\u7269
p777
I0
sV\u706f\u5177\u7167\u660e--LED\u706f
p778
I0
sV\u7ae5\u4e66--\u76ca\u667a\u6e38\u620f--\u521b\u610f\u624b\u5de5\u4e66
p779
I0
sV\u65e5\u7528\u6e05\u6d01--\u7eb8\u54c1--\u9762\u5dfe\u7eb8/\u5377\u7eb8
p780
I0
sV\u8fd0\u52a8\u670d\u88c5--\u8fd0\u52a8\u88e4
p781
I0
sV\u65e5\u5e38\u62a4\u7406/\u5065\u5eb7\u5b89\u5168--\u68c9\u7b7e/\u6307\u7532\u526a/\u68b3\u5b50
p782
I1
sV\u65e5\u5e38\u62a4\u7406/\u5065\u5eb7\u5b89\u5168--\u6e29\u5ea6\u8ba1
p783
I1
sV\u7537\u978b--\u6b63\u88c5\u978b
p784
I6
sV\u65c5\u6e38/\u5730\u56fe--\u56fd\u5916\u81ea\u52a9\u65c5\u6e38\u6307\u5357 --\u975e\u6d32
p785
I0
sV\u6210\u529f/\u52b1\u5fd7--\u4eba\u9645\u4ea4\u5f80--\u4eba\u8109/\u4eba\u9645\u5173\u7cfb
p786
I0
sV\u4f20\u8bb0--\u5f71\u89c6\u660e\u661f--\u4e2d\u56fd\u5f71\u89c6\u660e\u661f
p787
I0
sV\u5b55\u5a74\u6e05\u6d01--\u5976\u74f6\u6e05\u6d01
p788
I0
sV\u9884\u9632\u4fdd\u5065--\u517b\u989c\u7626\u8eab
p789
I39
sV\u4e2d\u5c0f\u5b66\u6559\u8f85--\u5c0f\u5b66\u901a\u7528--\u8bed\u6587
p790
I0
sV\u5185\u8863\u889c\u54c1--\u4fdd\u6696
p791
I5
sV\u7cfb\u7edf\u517b\u62a4--\u8282\u6cb9\u6dfb\u52a0\u5242
p792
I0
sV\u53a8\u623f\u7535\u5668--\u7535\u538b\u529b\u9505
p793
I0
sV\u5eb7\u590d\u62a4\u7406--\u7406\u7597\u5668\u68b0
p794
I4
sV\u793e\u4f1a\u79d1\u5b66--\u8bed\u8a00\u6587\u5b57--\u8bed\u8a00\u6587\u5b57\u5b66
p795
I0
sV\u5c0f\u8bf4--\u4f5c\u54c1\u96c6--\u4e2d\u56fd
p796
I10
sV\u50a8\u7269\u5bb6\u5177--\u6536\u7eb3\u5bb6\u5177
p797
I0
sV\u5a74\u513f\u73a9\u5177--\u4e50\u97f5\u57f9\u517b
p798
I1
sV\u533b\u5b66--\u5987\u4ea7\u79d1\u5b66--\u4ea7\u79d1
p799
I0
sV\u6bdb\u7ed2\u73a9\u5177--\u9760\u57ab\u62b1\u6795
p800
I0
sV\u6587\u5177--\u529e\u516c\u8bbe\u5907
p801
I19
sV\u5bb6\u5ead/\u5bb6\u5c45--\u5bb6\u88c5\u7b56\u7565\u79d8\u7c4d
p802
I0
sV\u6574\u7406\u6536\u7eb3--\u521b\u610f\u5bb6\u5c45
p803
I0
sV\u7ecf\u6d4e--\u4e2d\u56fd\u7ecf\u6d4e--\u4f53\u5236\u6539\u9769\u4e0e\u5e02\u573a\u7ecf\u6d4e
p804
I77
sV\u7ae5\u88c5--\u5185\u8863/\u5bb6\u5c45\u670d
p805
I4
sV\u5973\u978b--\u51c9\u978b
p806
I6
sV\u5185\u8863\u889c\u54c1--\u5bb6\u5c45\u670d
p807
I4
sV\u6210\u529f/\u52b1\u5fd7--\u8d22\u5546/\u8d22\u5bcc\u667a\u6167--\u8d22\u5546\u603b\u8bba
p808
I0
sV\u53a8\u536b\u88c5\u9970--\u9f99\u5934\u82b1\u6d12
p809
I0
sV\u6587\u5177--\u529e\u516c\u6587\u5177--\u529e\u516c\u793c\u54c1
p810
I0
sV\u7537\u978b--\u978b\u914d\u4ef6
p811
I0
sV\u5185\u8863\u889c\u54c1--\u60c5\u8da3\u5185\u8863
p812
I5
s.