(lp0
(lp1
F0.016412572326550821
aF0.034195332044794406
aF0.034449041975923696
aF0.034144590058568548
aF0.03354491203953569
aF0.034246074031020264
aF0.033429589343567837
aF0.034052331901794262
aF0.034375235450504263
aF0.033687912182535834
aF0.033355782818148411
aF0.033840138141213408
aF0.03523784921634384
aF0.033540299131696982
aF0.032816072601018834
aF0.033341944094632266
aF0.034315267648600982
aF0.034342945095633265
aF0.034859590773569267
aF0.03323123430650312
aF0.033927783390148979
aF0.033978525376374837
aF0.033332718278954836
aF0.034675074460020695
aF0.034172267505600838
aF0.033392686080858124
aF0.034306041832923552
aF0.032696136997212265
aF0.033752492892277837
aF0.03434755800347198
aa(lp2
F0.032311235315427206
aF0.034046442672706401
aF0.033306696378287377
aF0.03226557196391986
aF0.032781567835952888
aF0.033731365547305707
aF0.033356926064945461
aF0.033356926064945461
aF0.033265599361930763
aF0.032845496528063171
aF0.032283837304522799
aF0.033297563707985908
aF0.033672003190346154
aF0.033535013135824118
aF0.034032743667254201
aF0.033493916119467504
aF0.033379757740699137
aF0.033525880465522642
aF0.034032743667254201
aF0.033535013135824118
aF0.034023610996952731
aF0.032658276786883045
aF0.033110343966805789
aF0.033589809157632933
aF0.033904886283033626
aF0.033073813285599905
aF0.034411749484765185
aF0.034251927754489465
aF0.03243909269964778
aF0.032480189716004394
aa(lp3
F0.032981918582096786
aF0.032790981718552999
aF0.033563821404325477
aF0.033022833624284743
aF0.033950241247211715
aF0.032677328823586461
aF0.034323022742701964
aF0.032645506012995824
aF0.03360019033071477
aF0.034377576132285904
aF0.032690967170982445
aF0.03410480918436621
aF0.033413799582969639
aF0.033091025361264667
aF0.033754758267869264
aF0.032286362864901559
aF0.033854772815439818
aF0.033413799582969639
aF0.033741119920473281
aF0.032695513286781108
aF0.03295464188730482
aF0.032159071622539032
aF0.033031925855882063
aF0.03360019033071477
aF0.032850081223935602
aF0.033704750994083987
aF0.033709297109882651
aF0.033550183056929493
aF0.034009340752594312
aF0.033450168509358932
aa(lp4
F0.032770941631223717
aF0.033461624680407621
aF0.033479800550122986
aF0.032948156360948534
aF0.033443448810692257
aF0.033497976419838357
aF0.032925436523804329
aF0.032480127715777865
aF0.033398009136403839
aF0.033634295442703598
aF0.033561591963842133
aF0.034143219794733844
aF0.033284409950682804
aF0.033538872126697927
aF0.033970549032437868
aF0.03330712978782701
aF0.032957244295806216
aF0.033179898699819452
aF0.033466168647836463
aF0.033911477455862926
aF0.033966005065009026
aF0.032725501956935306
aF0.031943939559174572
aF0.03274367782665067
aF0.033579767833557497
aF0.034120499957589638
aF0.034006900771868596
aF0.033511608322124881
aF0.032970876198092747
aF0.033070843481527258
aa(lp5
F0.034657479210727794
aF0.034107141503498355
aF0.032633509956867472
aF0.032701733639581863
aF0.033361229239154327
aF0.033615930987954727
aF0.032897308196696458
aF0.032992821352496607
aF0.033715992389269173
aF0.032933694160810802
aF0.032956435388382263
aF0.033520417832154578
aF0.03307923801726817
aF0.033643220461040485
aF0.032519803819010151
aF0.033165654682039733
aF0.033297553801954226
aF0.033120172226896803
aF0.033688702916183415
aF0.032901856442210747
aF0.032701733639581863
aF0.033966145892555276
aF0.033379422221211499
aF0.033397615203268671
aF0.033029207316610951
aF0.033797860808526439
aF0.033706895898240587
aF0.033534062568697454
aF0.033729637125812048
aF0.033247523101297007
aa(lp6
F0.033196209683902682
aF0.033664917733394611
aF0.033378232227394694
aF0.032945928686601164
aF0.033510198571426404
aF0.033683119987743815
aF0.032454467819172737
aF0.033164355738791583
aF0.033091546721394777
aF0.032777557833871054
aF0.034033513383965937
aF0.034083569583426239
aF0.0334510412447915
aF0.0334464906812042
aF0.032955029813775766
aF0.03375137844155332
aF0.033423737863267695
aF0.032022164278379207
aF0.033382782790981995
aF0.032777557833871054
aF0.032327052038728328
aF0.034952727228600593
aF0.033796884077426322
aF0.033332726591521693
aF0.033150704048029681
aF0.032854917414855161
aF0.033173456865966185
aF0.034347502271489652
aF0.03361941209752161
aF0.033250816446950285
aa(lp7
F0.033365213972221336
aF0.033720455376973373
aF0.033078288222229302
aF0.033729564130941372
aF0.034171338698389418
aF0.033820651670621385
aF0.033406203365077339
aF0.033433529626981338
aF0.033624813460309363
aF0.032982646305565293
aF0.033684020361101366
aF0.033492736527773348
aF0.032968983174613296
aF0.033201256400797317
aF0.033378877103173339
aF0.033023635698421303
aF0.034025598634901406
aF0.03363847659126136
aF0.032267609119077223
aF0.033050961960325302
aF0.03329234394047733
aF0.032413349182565235
aF0.031648213849253155
aF0.033246800170637324
aF0.034485590710285452
aF0.032814134357157278
aF0.033743227261893376
aF0.033132940746037308
aF0.034107577420613412
aF0.033050961960325302
aa(lp8
F0.033285516972523861
aF0.033692108320808184
aF0.033564191941572667
aF0.032591113770959627
aF0.033792614047350379
aF0.032531724023457428
aF0.033701245205039296
aF0.033180442803866117
aF0.03413524720601694
aF0.032755577687119578
aF0.033121053056363911
aF0.033778908721003718
aF0.032362691665181922
aF0.032513450254995212
aF0.034308848006408002
aF0.033957077963510329
aF0.033459117772914923
aF0.0329428838138573
aF0.034007330826781423
aF0.032554566234035194
aF0.034290574237945785
aF0.033518507520417129
aF0.033934235752932557
aF0.033130189940595023
aF0.033235264109252767
aF0.032938315371741744
aF0.032655071960577389
aF0.033756066510425946
aF0.033011410445590611
aF0.033294653856754973
aa(lp9
F0.033974251519613391
aF0.032818967795522333
aF0.033552912749650769
aF0.033548382225242569
aF0.032800845697889526
aF0.033281081285158755
aF0.03294582247895194
aF0.032855211990787933
aF0.033185940272586548
aF0.032941291954543733
aF0.03301831086948314
aF0.03298206667421754
aF0.033262959187525955
aF0.03295941405217654
aF0.032610563672745119
aF0.033489485407935969
aF0.034046739910144598
aF0.03306814663797334
aF0.034712726998150034
aF0.033584626420508169
aF0.033947068373164191
aF0.033516668554385169
aF0.033774908445652584
aF0.032741948880582926
aF0.034033148336919998
aF0.03299565824744214
aF0.032850681466379733
aF0.034092045154226598
aF0.033208592894627555
aF0.033199531845811148
aa(lp10
F0.03335820159975738
aF0.032680389703931154
aF0.033576557109822207
aF0.033672087645475565
aF0.033672087645475565
aF0.034395390272565295
aF0.033390045111641835
aF0.033576557109822207
aF0.033476477501042497
aF0.03334000530725198
aF0.033198984040335111
aF0.03255301565639334
aF0.033631145987338414
aF0.032712233215815609
aF0.032971530384017587
aF0.033731225596118124
aF0.03436354676068084
aF0.034149740323742371
aF0.032671291557678457
aF0.03265309526517305
aF0.032543917510140644
aF0.033380946965389131
aF0.032994275749649339
aF0.033349103453504683
aF0.033289965502862125
aF0.033585655256074903
aF0.03323992569847227
aF0.032530270290761588
aF0.033349103453504683
aF0.033963228325561999
aa(lp11
F0.032962861366372539
aF0.033191453694814001
aF0.03296743321294137
aF0.033241744007071118
aF0.034165257013974611
aF0.03347490818208141
aF0.033246315853639949
aF0.033529770340907358
aF0.033397186790411315
aF0.034247550252213536
aF0.033177738155107515
aF0.033465764488943749
aF0.033671497584541063
aF0.032738840884499916
aF0.033936664685533149
aF0.033520626647769697
aF0.033900089912982517
aF0.034210975479662897
aF0.033918377299257833
aF0.033173166308538685
aF0.034073820082598023
aF0.033154878922263369
aF0.032267940687910515
aF0.032487389323214308
aF0.033639494658559255
aF0.032702266111949284
aF0.033058870144317958
aF0.032688550572242792
aF0.032880568128133621
aF0.032907999207546591
aa(lp12
F0.033553138557689391
aF0.032442735353903095
aF0.034445101786960343
aF0.033393859409605292
aF0.033899001850672003
aF0.032888716968538574
aF0.033225478595916381
aF0.033293741087952425
aF0.033939959345893632
aF0.03297973362458663
aF0.032865962804526562
aF0.032925123630957794
aF0.033202724431904369
aF0.033011589454203454
aF0.03371241770577349
aF0.033157216103880338
aF0.033685112708959068
aF0.033826188525833557
aF0.03263842116440642
aF0.033007038621401051
aF0.033858044355450381
aF0.033316495251964444
aF0.033448469403234121
aF0.03432222930129547
aF0.032570158672370376
aF0.033170868602287552
aF0.033380206911198078
aF0.033352901914383663
aF0.033512181062467762
aF0.032975182791784227
aa(lp13
F0.033352441352787116
aF0.033370639466552623
aF0.03298847907747695
aF0.033261450783959576
aF0.033024875305007965
aF0.033243252670194068
aF0.032733705484759838
aF0.033716403628097281
aF0.034030321090552297
aF0.033088568703187243
aF0.032688210200346068
aF0.032979380020594196
aF0.033748250327186917
aF0.033320594653697473
aF0.03463995790169682
aF0.033843790424455837
aF0.033529872962000822
aF0.033156811629807902
aF0.033170460215132036
aF0.033402486165642266
aF0.03327054984084233
aF0.032874740866442521
aF0.033802844668483441
aF0.033266000312400949
aF0.032747354070083966
aF0.03298847907747695
aF0.033607214945504227
aF0.033329693710580227
aF0.033061271532538981
aF0.033761898912511051
aa(lp14
F0.033564225910637589
aF0.033049951379059771
aF0.034037540523771163
aF0.032954378236023187
aF0.033914660768438409
aF0.032836049582739793
aF0.032731374235604481
aF0.033709861176217153
aF0.032494716929037701
aF0.033873700849994158
aF0.034956863137742135
aF0.033409488440959312
aF0.033118217909800192
aF0.033855496441796709
aF0.033022644766763601
aF0.033345773012268251
aF0.033268404277429109
aF0.033400386236860584
aF0.033750821094661404
aF0.034438037504114956
aF0.033641594645476731
aF0.033491408277847814
aF0.033127320113898913
aF0.033646145747526092
aF0.032881560603233405
aF0.032035055622052208
aF0.032849702888887874
aF0.032913418317578935
aF0.032872458399134684
aF0.032808742970443623
aa(lp15
F0.033259079741372766
aF0.033277301481731185
aF0.032106554663702595
aF0.033773843906498173
aF0.03262131882882801
aF0.032648651439365642
aF0.033277301481731185
aF0.033837619997752651
aF0.033404853664240133
aF0.033705512380154096
aF0.032539320997215106
aF0.033655402594168431
aF0.033632625418720405
aF0.033459518885315398
aF0.032967531895638016
aF0.032466434035781422
aF0.033632625418720405
aF0.033518739541480269
aF0.034757817885852943
aF0.033550627587107508
aF0.03350051780112185
aF0.033341077572985663
aF0.033259079741372766
aF0.03348685149585303
aF0.034019837401336864
aF0.033441297144956979
aF0.034703152664777678
aF0.032357103593630893
aF0.032534765562125506
aF0.033263635176462365
aa(lp16
F0.033001999297956441
aF0.032612822978190861
aF0.032525830624360909
aF0.032823436045358118
aF0.033226347999938947
aF0.034018436274285364
aF0.03252125207942249
aF0.033478167971551974
aF0.033794087572302851
aF0.0328692214947423
aF0.033670466858965555
aF0.032722708056712908
aF0.033789509027364432
aF0.032951635303633833
aF0.033382018527845184
aF0.033583474505135602
aF0.03340948979747569
aF0.032644872792759794
aF0.03339575416266044
aF0.033844451566625459
aF0.033363704348091508
aF0.033771194847610764
aF0.033469010881675136
aF0.033610945774766109
aF0.033066098927094299
aF0.032951635303633833
aF0.03364757413427346
aF0.033281290539199974
aF0.034348091509851499
aF0.034224470796514202
aa(lp17
F0.033681714372831108
aF0.033274162896815514
aF0.033808508165369296
aF0.032739817628261732
aF0.033527750481891883
aF0.033681714372831108
aF0.033274162896815514
aF0.033935301957907477
aF0.033138312404810313
aF0.033532278831625392
aF0.033482466984556813
aF0.032880196470000435
aF0.033256049497881482
aF0.032427361496649772
aF0.032671892382259128
aF0.0325134001415864
aF0.033908131859506439
aF0.033604732427361492
aF0.032803214524530826
aF0.033908131859506439
aF0.034406250330192165
aF0.033047745410140182
aF0.033414541738554217
aF0.033088500557741742
aF0.032766987726662769
aF0.033083972208008232
aF0.033713412820965655
aF0.032504343442119388
aF0.034542100822197365
aF0.03338284329041967
aa(lp18
F0.032799756496594758
aF0.0330234752501617
aF0.032699311341932047
aF0.033667237377772705
aF0.032959555606285433
aF0.03404162386333371
aF0.032808887874291363
aF0.032986949739375257
aF0.032064680592017655
aF0.033671803066621007
aF0.034151200395693034
aF0.034055320929878626
aF0.033817905109766767
aF0.033626146178137958
aF0.033178708671004066
aF0.033406993113419318
aF0.03306913213864475
aF0.033260891070273559
aF0.034151200395693034
aF0.033580489289654909
aF0.033073697827493052
aF0.033055435072099834
aF0.033612449111593043
aF0.032818019251987976
aF0.033301982269908305
aF0.033178708671004066
aF0.033785945287828634
aF0.033050869383251531
aF0.032621694631510857
aF0.03447992999277099
aa(lp19
F0.034348690727340092
aF0.033858705925942728
aF0.034058329363549064
aF0.033391405606091537
aF0.033432237672874648
aF0.033777041792376498
aF0.032992158730878872
aF0.033314278368834542
aF0.033341499746689957
aF0.033309741472525307
aF0.032293476699256703
aF0.033486680428585471
aF0.032778924604344832
aF0.033182708375866732
aF0.032588374959356965
aF0.033300667679906838
aF0.03369991455511951
aF0.032924105286240346
aF0.033400479398710006
aF0.032202738773072004
aF0.0339721283336736
aF0.033513901806440878
aF0.032824293567437178
aF0.033813336962850382
aF0.033822410755468851
aF0.032905957701003408
aF0.032951326664095754
aF0.033777041792376498
aF0.033400479398710006
aF0.033336962850380722
aa(lp20
F0.033212992569411369
aF0.0332311343931182
aF0.034215328329213625
aF0.033566758131694518
aF0.032491855077064952
aF0.033666538162082073
aF0.033317308055725636
aF0.032473713253358127
aF0.033616648146888299
aF0.03392959460583108
aF0.033135889818657352
aF0.033544080852060988
aF0.033530474484280863
aF0.033090535259390284
aF0.033530474484280863
aF0.032609776931159337
aF0.034174509225873263
aF0.032913652478248706
aF0.033580364499474644
aF0.033163102554217595
aF0.033902381870270844
aF0.03360757723503488
aF0.032605241475232631
aF0.033185779833851133
aF0.032972613405295899
aF0.032931794301955537
aF0.033544080852060988
aF0.033036109788269798
aF0.033203921657557957
aF0.034015768268438516
aa(lp21
F0.0337482742368376
aF0.033266348717062737
aF0.033016293022839933
aF0.033466393272440983
aF0.033211791111050493
aF0.032998107154169183
aF0.032857166671970875
aF0.033211791111050493
aF0.033457300338105608
aF0.033743727769669912
aF0.03307994356318756
aF0.034207467420774018
aF0.032902631343647751
aF0.033607333754639292
aF0.032925363679486189
aF0.034330222034301576
aF0.03388466825186822
aF0.032920817212318501
aF0.033207244643882805
aF0.032784423197287881
aF0.032538913970232765
aF0.033548229681459353
aF0.033343638658913426
aF0.033857389448862095
aF0.032793516131623256
aF0.033098129431858303
aF0.034221106822277081
aF0.032816248467461694
aF0.033961958193718902
aF0.032993560687001496
aa(lp22
F0.034603340608706193
aF0.033102794955741477
aF0.032743573420637807
aF0.033994028131441735
aF0.033457469382805867
aF0.03410770583242391
aF0.033452922274766581
aF0.032811780041227111
aF0.033175548684370074
aF0.03410770583242391
aF0.032529859342791317
aF0.033316509033587967
aF0.033184642900448647
aF0.032802685825148538
aF0.033175548684370074
aF0.034134988480659635
aF0.033134624712016489
aF0.03275266763671638
aF0.0324661998302413
aF0.033643900812416631
aF0.033111889171820057
aF0.032784497392991392
aF0.033557505759670182
aF0.032911816418091426
aF0.033580241299866614
aF0.033543864435552323
aF0.033502940463198738
aF0.033853067782223835
aF0.033216472656723658
aF0.033239208196920091
aa(lp23
F0.034126987747009729
aF0.033319649636545809
aF0.033223863759033141
aF0.034970815715573721
aF0.032790546694094876
aF0.033109832952470435
aF0.032945628591020147
aF0.033616129733608828
aF0.032325301003319054
aF0.033534027552883684
aF0.032293372377481498
aF0.033347017030120857
aF0.03349753769478362
aF0.032416525648569214
aF0.034031201869497062
aF0.034085936656647157
aF0.032813352855407416
aF0.032877210107082527
aF0.033424557978583493
aF0.033296843475233269
aF0.033488415230258604
aF0.034291192108460017
aF0.033087026791157895
aF0.033538588785146192
aF0.034459957702172819
aF0.033734721772434036
aF0.032754056835994812
aF0.032676515887532176
aF0.033246669920345681
aF0.032676515887532176
aa(lp24
F0.03305773704317827
aF0.033686369903366674
aF0.034337779316460461
aF0.032852748067029876
aF0.034547323603189933
aF0.033772920804407108
aF0.034078126613339164
aF0.033144287944218705
aF0.032884635241097401
aF0.032697867507273312
aF0.032943854278651381
aF0.032524765705192443
aF0.033795697357312485
aF0.033977909780555503
aF0.033358387541529248
aF0.034009796954623028
aF0.032993962695043212
aF0.033426717200245377
aF0.032993962695043212
aF0.032989407384462134
aF0.032747975923665143
aF0.033977909780555503
aF0.033194396360610529
aF0.033499602169542585
aF0.032898301172840629
aF0.032401772319503405
aF0.032620427227395027
aF0.033545155275353337
aF0.033577042449420863
aF0.033463159684893981
aa(lp25
F0.032702963013522018
aF0.03319439704532872
aF0.033380959964810893
aF0.034168164478723485
aF0.032730264904177943
aF0.033012384440955868
aF0.033481066897215965
aF0.033312705238171078
aF0.033790488324649814
aF0.032944129714316046
aF0.034554941263015795
aF0.034250070150691266
aF0.033476516582106645
aF0.033212598305766006
aF0.033977051244131987
aF0.032989632865409263
aF0.033694931707354069
aF0.03419546636937941
aF0.032489098203383915
aF0.033326356183499037
aF0.033107941058251614
aF0.032530051039367805
aF0.032884975617894871
aF0.033249000826640576
aF0.034045305970771808
aF0.033653978871370172
aF0.032639258601991517
aF0.032525500724258485
aF0.033217148620875325
aF0.033262651771968542
aa(lp26
F0.033736911492919491
aF0.032955939799718059
aF0.03402007082027908
aF0.033873924070674133
aF0.033595331829239697
aF0.033371544618907123
aF0.033567929313688773
aF0.033915027844000523
aF0.03355879514183846
aF0.032745853847160944
aF0.033814551953647118
aF0.033924162015850828
aF0.032544902066454141
aF0.032864598081214967
aF0.032736719675310638
aF0.033079251119697228
aF0.03460009073277371
aF0.032782390534562181
aF0.033344142103356199
aF0.032928537284167128
aF0.033435483821859291
aF0.03336697753298197
aF0.033791716524021347
aF0.033453752165559909
aF0.03325736747077826
aF0.03375517983662011
aF0.033371544618907123
aF0.031782198716953328
aF0.033220830783377023
aF0.032604274183481149
aa(lp27
F0.033461717648594222
aF0.032769717084067444
aF0.033794060024978791
aF0.033748533672049399
aF0.034458744777747928
aF0.033794060024978791
aF0.03341163866037189
aF0.034076323413141027
aF0.03347992818976598
aF0.033366112307442491
aF0.033484480825058914
aF0.032828901342875652
aF0.032091374425419483
aF0.033794060024978791
aF0.033980718071989303
aF0.03246924315473345
aF0.033543665083867129
aF0.033297822778048408
aF0.032860769789926234
aF0.03352090190740243
aF0.032742401272309811
aF0.03277882235465332
aF0.033129375272209653
aF0.032009426990146576
aF0.03327961223687665
aF0.033170348989846103
aF0.034094533954312785
aF0.032951822495785016
aF0.033375217578028374
aF0.034235665648393906
aa(lp28
F0.034123777180493003
aF0.033233903578865805
aF0.032911551406847789
aF0.033370108721972006
aF0.032793506949489078
aF0.033097698435759597
aF0.033606197636689428
aF0.033524474550825703
aF0.033742402779795629
aF0.032557418034771655
aF0.033828666037096222
aF0.033433671122088233
aF0.034636816552859703
aF0.032589199234829773
aF0.033497233522204461
aF0.033065917235701486
aF0.032462074434597317
aF0.033143100150128335
aF0.032607359920577263
aF0.032947872778342775
aF0.033383729236282626
aF0.033692460893990021
aF0.034119237009056128
aF0.032970573635527141
aF0.03306137706426461
aF0.033864987408591216
aF0.033483613007893841
aF0.033297465978982033
aF0.033052296721390866
aF0.033901308780086202
aa(lp29
F0.033394435747937413
aF0.033539629604422361
aF0.032196586431936597
aF0.032963391486497726
aF0.03338989843992226
aF0.033507868448316276
aF0.032745600701770301
aF0.033521480372361745
aF0.033544166912437515
aF0.034560523907832146
aF0.032682078389558139
aF0.033589539992589061
aF0.033299152279619167
aF0.033081361494891742
aF0.034578673139892768
aF0.033671211536861846
aF0.033721121925028547
aF0.033507868448316276
aF0.033398973055952567
aF0.033702972692967924
aF0.033335450743740405
aF0.033498793832285968
aF0.032777361857876386
aF0.032264646052163913
aF0.033262853815497928
aF0.03320386881130092
aF0.033140346499088758
aF0.03313127188305845
aF0.033140346499088758
aF0.033648524996786069
aa(lp30
F0.03436692154063891
aF0.032362175611500545
aF0.033553203805229005
aF0.033885055172183882
aF0.033366821530637913
aF0.033189531074319552
aF0.034476023359911748
aF0.033857779717365671
aF0.033957789718365772
aF0.033166801528637713
aF0.033712310625001893
aF0.032553103795228008
aF0.033835050171683832
aF0.032134880154682133
aF0.032239436064818598
aF0.033680489261047317
aF0.032921322435273827
aF0.03317589334691045
aF0.033525928350410794
aF0.033053153800228503
aF0.03301224061800119
aF0.032675843341909948
aF0.032575833340909847
aF0.033712310625001893
aF0.033057699709364875
aF0.033248627893092339
aF0.032503098794727958
aF0.03339864289459249
aF0.035021532456275928
aF0.033780499262047417
aa.