(dp0
I0
(dp1
I0
F0.036057692307692304
sI1
F0.03245192307692308
sI2
F0.038461538461538464
sI3
F0.034855769230769232
sI4
F0.025240384615384616
sI5
F0.028846153846153848
sI6
F0.02403846153846154
sI7
F0.016826923076923076
sI8
F0.013221153846153846
sI9
F0.015625
sI10
F0.057692307692307696
sI11
F0.015625
sI12
F0.034855769230769232
sI13
F0.026442307692307692
sI14
F0.02403846153846154
sI15
F0.020432692307692308
sI16
F0.02403846153846154
sI17
F0.02403846153846154
sI18
F0.019230769230769232
sI19
F0.016826923076923076
sI20
F0.027644230769230768
sI21
F0.004807692307692308
sI22
F0.042067307692307696
sI23
F0.016826923076923076
sI24
F0.016826923076923076
sI25
F0.039663461538461536
sI26
F0.014423076923076924
sI27
F0.025240384615384616
sI28
F0.026442307692307692
sI29
F0.01201923076923077
sI30
F0.054086538461538464
sI31
F0.013221153846153846
sI32
F0.02283653846153846
sI33
F0.02403846153846154
sI34
F0.03125
sI35
F0.016826923076923076
sI36
F0.01201923076923077
sI37
F0.019230769230769232
sI38
F0.018028846153846152
sI39
F0.033653846153846152
ssI1
(dp2
I0
F0.043269230769230768
sI1
F0.016826923076923076
sI2
F0.03245192307692308
sI3
F0.03245192307692308
sI4
F0.020432692307692308
sI5
F0.036057692307692304
sI6
F0.019230769230769232
sI7
F0.019230769230769232
sI8
F0.02403846153846154
sI9
F0.019230769230769232
sI10
F0.040865384615384616
sI11
F0.028846153846153848
sI12
F0.014423076923076924
sI13
F0.015625
sI14
F0.03245192307692308
sI15
F0.02403846153846154
sI16
F0.030048076923076924
sI17
F0.021634615384615384
sI18
F0.02403846153846154
sI19
F0.013221153846153846
sI20
F0.026442307692307692
sI21
F0.019230769230769232
sI22
F0.037259615384615384
sI23
F0.019230769230769232
sI24
F0.0084134615384615381
sI25
F0.02403846153846154
sI26
F0.036057692307692304
sI27
F0.026442307692307692
sI28
F0.06129807692307692
sI29
F0.0072115384615384619
sI30
F0.04567307692307692
sI31
F0.016826923076923076
sI32
F0.010817307692307692
sI33
F0.018028846153846152
sI34
F0.036057692307692304
sI35
F0.025240384615384616
sI36
F0.020432692307692308
sI37
F0.0072115384615384619
sI38
F0.020432692307692308
sI39
F0.025240384615384616
ssI2
(dp3
I0
F0.034534534534534533
sI1
F0.022522522522522521
sI2
F0.018018018018018018
sI3
F0.016516516516516516
sI4
F0.03003003003003003
sI5
F0.025525525525525526
sI6
F0.018018018018018018
sI7
F0.033783783783783786
sI8
F0.029279279279279279
sI9
F0.018018018018018018
sI10
F0.032282282282282283
sI11
F0.024774774774774775
sI12
F0.015765765765765764
sI13
F0.028528528528528527
sI14
F0.034534534534534533
sI15
F0.027777777777777776
sI16
F0.022522522522522521
sI17
F0.035285285285285288
sI18
F0.012012012012012012
sI19
F0.01951951951951952
sI20
F0.021021021021021023
sI21
F0.03903903903903904
sI22
F0.03003003003003003
sI23
F0.032282282282282283
sI24
F0.012762762762762763
sI25
F0.013513513513513514
sI26
F0.024774774774774775
sI27
F0.023273273273273273
sI28
F0.026276276276276277
sI29
F0.023273273273273273
sI30
F0.027777777777777776
sI31
F0.037537537537537538
sI32
F0.01951951951951952
sI33
F0.035285285285285288
sI34
F0.024774774774774775
sI35
F0.020270270270270271
sI36
F0.018768768768768769
sI37
F0.030780780780780781
sI38
F0.011261261261261261
sI39
F0.028528528528528527
ssI3
(dp4
I0
F0.026490066225165563
sI1
F0.022705771050141911
sI2
F0.011352885525070956
sI3
F0.023651844843897825
sI4
F0.021759697256385997
sI5
F0.0075685903500473037
sI6
F0.033112582781456956
sI7
F0.024597918637653739
sI8
F0.017975402081362345
sI9
F0.016083254493850521
sI10
F0.04068117313150426
sI11
F0.042573320719016081
sI12
F0.017029328287606435
sI13
F0.019867549668874173
sI14
F0.035004730368968777
sI15
F0.038789025543992432
sI16
F0.030274361400189215
sI17
F0.030274361400189215
sI18
F0.014191106906338695
sI19
F0.018921475875118259
sI20
F0.017029328287606435
sI21
F0.021759697256385997
sI22
F0.037842951750236518
sI23
F0.035950804162724691
sI24
F0.019867549668874173
sI25
F0.035950804162724691
sI26
F0.027436140018921477
sI27
F0.033112582781456956
sI28
F0.010406811731315043
sI29
F0.031220435193945129
sI30
F0.011352885525070956
sI31
F0.024597918637653739
sI32
F0.031220435193945129
sI33
F0.025543992431409649
sI34
F0.021759697256385997
sI35
F0.03405865657521287
sI36
F0.026490066225165563
sI37
F0.018921475875118259
sI38
F0.010406811731315043
sI39
F0.032166508987701042
ssI4
(dp5
I0
F0.020495303159692571
sI1
F0.034158838599487616
sI2
F0.021349274124679761
sI3
F0.025619128949615714
sI4
F0.027327070879590094
sI5
F0.029035012809564473
sI6
F0.017079419299743808
sI7
F0.033304867634500426
sI8
F0.035012809564474806
sI9
F0.023057216054654141
sI10
F0.012809564474807857
sI11
F0.045260461144321092
sI12
F0.018787361229718188
sI13
F0.012809564474807857
sI14
F0.023911187019641331
sI15
F0.023911187019641331
sI16
F0.017933390264730998
sI17
F0.020495303159692571
sI18
F0.014517506404782237
sI19
F0.050384286934244238
sI20
F0.023057216054654141
sI21
F0.024765157984628524
sI22
F0.023911187019641331
sI23
F0.031596925704526047
sI24
F0.011101622544833475
sI25
F0.021349274124679761
sI26
F0.027327070879590094
sI27
F0.017933390264730998
sI28
F0.019641332194705381
sI29
F0.023057216054654141
sI30
F0.015371477369769428
sI31
F0.025619128949615714
sI32
F0.024765157984628524
sI33
F0.015371477369769428
sI34
F0.031596925704526047
sI35
F0.048676345004269858
sI36
F0.023911187019641331
sI37
F0.021349274124679761
sI38
F0.034158838599487616
sI39
F0.028181041844577284
ssI5
(dp6
I0
F0.019650655021834062
sI1
F0.032751091703056769
sI2
F0.017467248908296942
sI3
F0.017467248908296942
sI4
F0.034934497816593885
sI5
F0.028384279475982533
sI6
F0.021834061135371178
sI7
F0.013100436681222707
sI8
F0.0087336244541484712
sI9
F0.015283842794759825
sI10
F0.024017467248908297
sI11
F0.026200873362445413
sI12
F0.013100436681222707
sI13
F0.013100436681222707
sI14
F0.048034934497816595
sI15
F0.028384279475982533
sI16
F0.013100436681222707
sI17
F0.028384279475982533
sI18
F0.019650655021834062
sI19
F0.010917030567685589
sI20
F0.032751091703056769
sI21
F0.034934497816593885
sI22
F0.021834061135371178
sI23
F0.026200873362445413
sI24
F0.028384279475982533
sI25
F0.043668122270742356
sI26
F0.04148471615720524
sI27
F0.039301310043668124
sI28
F0.013100436681222707
sI29
F0.017467248908296942
sI30
F0.0087336244541484712
sI31
F0.0087336244541484712
sI32
F0.037117903930131008
sI33
F0.019650655021834062
sI34
F0.026200873362445413
sI35
F0.026200873362445413
sI36
F0.030567685589519649
sI37
F0.026200873362445413
sI38
F0.061135371179039298
sI39
F0.021834061135371178
ssI6
(dp7
I0
F0.016233766233766232
sI1
F0.021103896103896104
sI2
F0.011363636363636364
sI3
F0.01948051948051948
sI4
F0.031655844155844153
sI5
F0.030844155844155844
sI6
F0.038149350649350648
sI7
F0.012175324675324676
sI8
F0.021915584415584416
sI9
F0.016233766233766232
sI10
F0.033279220779220776
sI11
F0.042207792207792208
sI12
F0.020292207792207792
sI13
F0.012175324675324676
sI14
F0.021103896103896104
sI15
F0.018668831168831168
sI16
F0.030032467532467532
sI17
F0.039772727272727272
sI18
F0.017857142857142856
sI19
F0.017045454545454544
sI20
F0.010551948051948052
sI21
F0.021915584415584416
sI22
F0.035714285714285712
sI23
F0.02353896103896104
sI24
F0.021915584415584416
sI25
F0.028409090909090908
sI26
F0.034090909090909088
sI27
F0.03896103896103896
sI28
F0.017045454545454544
sI29
F0.017857142857142856
sI30
F0.018668831168831168
sI31
F0.027597402597402596
sI32
F0.026785714285714284
sI33
F0.045454545454545456
sI34
F0.033279220779220776
sI35
F0.037337662337662336
sI36
F0.024350649350649352
sI37
F0.030844155844155844
sI38
F0.017045454545454544
sI39
F0.017045454545454544
ssI7
(dp8
I0
F0.0247320692497939
sI1
F0.0098928276999175595
sI2
F0.025556471558120363
sI3
F0.018961253091508656
sI4
F0.020610057708161583
sI5
F0.041220115416323165
sI6
F0.018961253091508656
sI7
F0.023083264633140973
sI8
F0.021434460016488046
sI9
F0.0098928276999175595
sI10
F0.032976092333058531
sI11
F0.02720527617477329
sI12
F0.025556471558120363
sI13
F0.028854080791426217
sI14
F0.040395713107996702
sI15
F0.031327287716405604
sI16
F0.017312448474855729
sI17
F0.032151690024732067
sI18
F0.031327287716405604
sI19
F0.032976092333058531
sI20
F0.014014839241549877
sI21
F0.023907666941467436
sI22
F0.035449299258037921
sI23
F0.040395713107996702
sI24
F0.014014839241549877
sI25
F0.02720527617477329
sI26
F0.019785655399835119
sI27
F0.030502885408079144
sI28
F0.030502885408079144
sI29
F0.021434460016488046
sI30
F0.018136850783182192
sI31
F0.014014839241549877
sI32
F0.033800494641384994
sI33
F0.02720527617477329
sI34
F0.022258862324814509
sI35
F0.023907666941467436
sI36
F0.018961253091508656
sI37
F0.01483924154987634
sI38
F0.022258862324814509
sI39
F0.032976092333058531
ssI8
(dp9
I0
F0.03968253968253968
sI1
F0.010912698412698412
sI2
F0.030753968253968252
sI3
F0.023809523809523808
sI4
F0.03273809523809524
sI5
F0.010912698412698412
sI6
F0.016865079365079364
sI7
F0.017857142857142856
sI8
F0.036706349206349208
sI9
F0.038690476190476192
sI10
F0.041666666666666664
sI11
F0.051587301587301584
sI12
F0.031746031746031744
sI13
F0.026785714285714284
sI14
F0.017857142857142856
sI15
F0.01984126984126984
sI16
F0.018849206349206348
sI17
F0.020833333333333332
sI18
F0.017857142857142856
sI19
F0.020833333333333332
sI20
F0.036706349206349208
sI21
F0.01984126984126984
sI22
F0.03273809523809524
sI23
F0.015873015873015872
sI24
F0.01488095238095238
sI25
F0.017857142857142856
sI26
F0.0248015873015873
sI27
F0.0248015873015873
sI28
F0.022817460317460316
sI29
F0.023809523809523808
sI30
F0.035714285714285712
sI31
F0.048611111111111112
sI32
F0.0069444444444444441
sI33
F0.022817460317460316
sI34
F0.012896825396825396
sI35
F0.022817460317460316
sI36
F0.025793650793650792
sI37
F0.023809523809523808
sI38
F0.022817460317460316
sI39
F0.016865079365079364
ssI9
(dp10
I0
F0.029556650246305417
sI1
F0.030541871921182268
sI2
F0.032512315270935961
sI3
F0.026600985221674877
sI4
F0.02167487684729064
sI5
F0.016748768472906402
sI6
F0.039408866995073892
sI7
F0.040394088669950742
sI8
F0.020689655172413793
sI9
F0.032512315270935961
sI10
F0.024630541871921183
sI11
F0.038423645320197042
sI12
F0.028571428571428571
sI13
F0.014778325123152709
sI14
F0.018719211822660099
sI15
F0.029556650246305417
sI16
F0.041379310344827586
sI17
F0.014778325123152709
sI18
F0.009852216748768473
sI19
F0.040394088669950742
sI20
F0.012807881773399015
sI21
F0.045320197044334973
sI22
F0.019704433497536946
sI23
F0.014778325123152709
sI24
F0.012807881773399015
sI25
F0.030541871921182268
sI26
F0.0078817733990147777
sI27
F0.017733990147783252
sI28
F0.011822660098522168
sI29
F0.015763546798029555
sI30
F0.02167487684729064
sI31
F0.0088669950738916262
sI32
F0.042364532019704436
sI33
F0.030541871921182268
sI34
F0.023645320197044337
sI35
F0.026600985221674877
sI36
F0.037438423645320199
sI37
F0.017733990147783252
sI38
F0.026600985221674877
sI39
F0.023645320197044337
ssI10
(dp11
I0
F0.020886075949367089
sI1
F0.026582278481012658
sI2
F0.018987341772151899
sI3
F0.027848101265822784
sI4
F0.019620253164556962
sI5
F0.0310126582278481
sI6
F0.01708860759493671
sI7
F0.018987341772151899
sI8
F0.046202531645569624
sI9
F0.006962025316455696
sI10
F0.034810126582278479
sI11
F0.013291139240506329
sI12
F0.022784810126582278
sI13
F0.021518987341772152
sI14
F0.017721518987341773
sI15
F0.012025316455696202
sI16
F0.024683544303797468
sI17
F0.010759493670886076
sI18
F0.032278481012658226
sI19
F0.038607594936708858
sI20
F0.018354430379746836
sI21
F0.020253164556962026
sI22
F0.01708860759493671
sI23
F0.013291139240506329
sI24
F0.01708860759493671
sI25
F0.033544303797468353
sI26
F0.051265822784810129
sI27
F0.025949367088607594
sI28
F0.025316455696202531
sI29
F0.033544303797468353
sI30
F0.011392405063291139
sI31
F0.036075949367088606
sI32
F0.039873417721518985
sI33
F0.014556962025316455
sI34
F0.034810126582278479
sI35
F0.031645569620253167
sI36
F0.041139240506329111
sI37
F0.014556962025316455
sI38
F0.015189873417721518
sI39
F0.042405063291139238
ssI11
(dp12
I0
F0.015822784810126583
sI1
F0.029746835443037974
sI2
F0.018987341772151899
sI3
F0.038607594936708858
sI4
F0.016455696202531647
sI5
F0.039240506329113925
sI6
F0.048734177215189876
sI7
F0.016455696202531647
sI8
F0.018987341772151899
sI9
F0.025949367088607594
sI10
F0.022784810126582278
sI11
F0.012658227848101266
sI12
F0.015189873417721518
sI13
F0.025949367088607594
sI14
F0.01708860759493671
sI15
F0.020886075949367089
sI16
F0.037341772151898732
sI17
F0.01708860759493671
sI18
F0.02911392405063291
sI19
F0.013924050632911392
sI20
F0.018354430379746836
sI21
F0.025949367088607594
sI22
F0.032911392405063293
sI23
F0.027215189873417721
sI24
F0.024683544303797468
sI25
F0.021518987341772152
sI26
F0.027215189873417721
sI27
F0.025949367088607594
sI28
F0.046202531645569624
sI29
F0.024050632911392405
sI30
F0.037341772151898732
sI31
F0.015189873417721518
sI32
F0.026582278481012658
sI33
F0.017721518987341773
sI34
F0.021518987341772152
sI35
F0.023417721518987342
sI36
F0.037974683544303799
sI37
F0.031645569620253167
sI38
F0.016455696202531647
sI39
F0.01708860759493671
ssI12
(dp13
I0
F0.027977044476327116
sI1
F0.013629842180774749
sI2
F0.02654232424677188
sI3
F0.016499282639885222
sI4
F0.030129124820659971
sI5
F0.028694404591104734
sI6
F0.04519368723098996
sI7
F0.033715925394548062
sI8
F0.01721664275466284
sI9
F0.012912482065997131
sI10
F0.017934002869440458
sI11
F0.030846484935437589
sI12
F0.022955523672883789
sI13
F0.020086083213773313
sI14
F0.017934002869440458
sI15
F0.017934002869440458
sI16
F0.040889526542324243
sI17
F0.024390243902439025
sI18
F0.012912482065997131
sI19
F0.040172166427546625
sI20
F0.030129124820659971
sI21
F0.027977044476327116
sI22
F0.016499282639885222
sI23
F0.037302725968436153
sI24
F0.016499282639885222
sI25
F0.02654232424677188
sI26
F0.022955523672883789
sI27
F0.022238163558106171
sI28
F0.025107604017216643
sI29
F0.032998565279770443
sI30
F0.035868005738880916
sI31
F0.039454806312769007
sI32
F0.027259684361549498
sI33
F0.021520803443328552
sI34
F0.019368723098995694
sI35
F0.024390243902439025
sI36
F0.020803443328550931
sI37
F0.018651362984218076
sI38
F0.010043041606886656
sI39
F0.025824964131994262
ssI13
(dp14
I0
F0.021739130434782608
sI1
F0.024456521739130436
sI2
F0.019021739130434784
sI3
F0.019021739130434784
sI4
F0.052989130434782608
sI5
F0.019021739130434784
sI6
F0.042119565217391304
sI7
F0.016304347826086956
sI8
F0.040760869565217392
sI9
F0.035326086956521736
sI10
F0.02717391304347826
sI11
F0.021739130434782608
sI12
F0.03125
sI13
F0.006793478260869565
sI14
F0.043478260869565216
sI15
F0.02717391304347826
sI16
F0.043478260869565216
sI17
F0.01358695652173913
sI18
F0.033967391304347824
sI19
F0.043478260869565216
sI20
F0.032608695652173912
sI21
F0.032608695652173912
sI22
F0.017663043478260868
sI23
F0.004076086956521739
sI24
F0.016304347826086956
sI25
F0.051630434782608696
sI26
F0.017663043478260868
sI27
F0.006793478260869565
sI28
F0.024456521739130436
sI29
F0.019021739130434784
sI30
F0.008152173913043478
sI31
F0.02309782608695652
sI32
F0.017663043478260868
sI33
F0.02309782608695652
sI34
F0.03125
sI35
F0.016304347826086956
sI36
F0.02717391304347826
sI37
F0.019021739130434784
sI38
F0.012228260869565218
sI39
F0.016304347826086956
ssI14
(dp15
I0
F0.049916805324459232
sI1
F0.014975041597337771
sI2
F0.039933444259567387
sI3
F0.021630615640599003
sI4
F0.018302828618968387
sI5
F0.031613976705490848
sI6
F0.029950083194675542
sI7
F0.034941763727121461
sI8
F0.018302828618968387
sI9
F0.018302828618968387
sI10
F0.0083194675540765387
sI11
F0.033277870216306155
sI12
F0.033277870216306155
sI13
F0.048252911813643926
sI14
F0.016638935108153077
sI15
F0.019966722129783693
sI16
F0.031613976705490848
sI17
F0.031613976705490848
sI18
F0.034941763727121461
sI19
F0.0083194675540765387
sI20
F0.013311148086522463
sI21
F0.014975041597337771
sI22
F0.038269550748752081
sI23
F0.014975041597337771
sI24
F0.044925124792013313
sI25
F0.014975041597337771
sI26
F0.021630615640599003
sI27
F0.021630615640599003
sI28
F0.029950083194675542
sI29
F0.026622296173044926
sI30
F0.021630615640599003
sI31
F0.016638935108153077
sI32
F0.033277870216306155
sI33
F0.013311148086522463
sI34
F0.026622296173044926
sI35
F0.033277870216306155
sI36
F0.021630615640599003
sI37
F0.016638935108153077
sI38
F0.014975041597337771
sI39
F0.016638935108153077
ssI15
(dp16
I0
F0.02181818181818182
sI1
F0.027272727272727271
sI2
F0.016363636363636365
sI3
F0.01090909090909091
sI4
F0.029090909090909091
sI5
F0.023636363636363636
sI6
F0.05909090909090909
sI7
F0.022727272727272728
sI8
F0.024545454545454544
sI9
F0.013636363636363636
sI10
F0.01
sI11
F0.023636363636363636
sI12
F0.064545454545454545
sI13
F0.015454545454545455
sI14
F0.012727272727272728
sI15
F0.04363636363636364
sI16
F0.022727272727272728
sI17
F0.015454545454545455
sI18
F0.019090909090909092
sI19
F0.052727272727272727
sI20
F0.029090909090909091
sI21
F0.0090909090909090905
sI22
F0.024545454545454544
sI23
F0.03727272727272727
sI24
F0.023636363636363636
sI25
F0.02181818181818182
sI26
F0.013636363636363636
sI27
F0.029999999999999999
sI28
F0.022727272727272728
sI29
F0.019090909090909092
sI30
F0.012727272727272728
sI31
F0.029999999999999999
sI32
F0.066363636363636361
sI33
F0.015454545454545455
sI34
F0.02
sI35
F0.013636363636363636
sI36
F0.018181818181818181
sI37
F0.02
sI38
F0.028181818181818183
sI39
F0.015454545454545455
ssI16
(dp17
I0
F0.016935483870967744
sI1
F0.025806451612903226
sI2
F0.020967741935483872
sI3
F0.01532258064516129
sI4
F0.017741935483870968
sI5
F0.023387096774193549
sI6
F0.016129032258064516
sI7
F0.020161290322580645
sI8
F0.020967741935483872
sI9
F0.028225806451612902
sI10
F0.018548387096774192
sI11
F0.033870967741935487
sI12
F0.02661290322580645
sI13
F0.028225806451612902
sI14
F0.033064516129032259
sI15
F0.014516129032258065
sI16
F0.020161290322580645
sI17
F0.023387096774193549
sI18
F0.027419354838709678
sI19
F0.018548387096774192
sI20
F0.028225806451612902
sI21
F0.020967741935483872
sI22
F0.020967741935483872
sI23
F0.033870967741935487
sI24
F0.011290322580645161
sI25
F0.030645161290322579
sI26
F0.023387096774193549
sI27
F0.030645161290322579
sI28
F0.027419354838709678
sI29
F0.010483870967741936
sI30
F0.030645161290322579
sI31
F0.050000000000000003
sI32
F0.045161290322580643
sI33
F0.01935483870967742
sI34
F0.01935483870967742
sI35
F0.037903225806451613
sI36
F0.02903225806451613
sI37
F0.036290322580645164
sI38
F0.022580645161290321
sI39
F0.021774193548387097
ssI17
(dp18
I0
F0.056239015817223195
sI1
F0.030755711775043937
sI2
F0.0210896309314587
sI3
F0.026362038664323375
sI4
F0.025483304042179262
sI5
F0.018453427065026361
sI6
F0.016695957820738138
sI7
F0.024604569420035149
sI8
F0.029876977152899824
sI9
F0.015817223198594025
sI10
F0.020210896309314587
sI11
F0.0096660808435852369
sI12
F0.019332161687170474
sI13
F0.022847100175746926
sI14
F0.060632688927943761
sI15
F0.028119507908611598
sI16
F0.023725834797891036
sI17
F0.022847100175746926
sI18
F0.038664323374340948
sI19
F0.034270650263620389
sI20
F0.0210896309314587
sI21
F0.016695957820738138
sI22
F0.018453427065026361
sI23
F0.025483304042179262
sI24
F0.012302284710017574
sI25
F0.038664323374340948
sI26
F0.019332161687170474
sI27
F0.019332161687170474
sI28
F0.026362038664323375
sI29
F0.023725834797891036
sI30
F0.018453427065026361
sI31
F0.041300527240773287
sI32
F0.015817223198594025
sI33
F0.028998242530755711
sI34
F0.03163444639718805
sI35
F0.026362038664323375
sI36
F0.020210896309314587
sI37
F0.013181019332161687
sI38
F0.021968365553602813
sI39
F0.014938488576449912
ssI18
(dp19
I0
F0.011928429423459244
sI1
F0.035785288270377733
sI2
F0.011928429423459244
sI3
F0.033797216699801194
sI4
F0.035785288270377733
sI5
F0.015904572564612324
sI6
F0.019880715705765408
sI7
F0.02982107355864811
sI8
F0.019880715705765408
sI9
F0.027833001988071572
sI10
F0.023856858846918488
sI11
F0.02584493041749503
sI12
F0.023856858846918488
sI13
F0.0099403578528827041
sI14
F0.037773359840954271
sI15
F0.023856858846918488
sI16
F0.031809145129224649
sI17
F0.039761431411530816
sI18
F0.015904572564612324
sI19
F0.011928429423459244
sI20
F0.0079522862823061622
sI21
F0.02584493041749503
sI22
F0.037773359840954271
sI23
F0.0099403578528827041
sI24
F0.017892644135188866
sI25
F0.0437375745526839
sI26
F0.0079522862823061622
sI27
F0.035785288270377733
sI28
F0.037773359840954271
sI29
F0.011928429423459244
sI30
F0.035785288270377733
sI31
F0.019880715705765408
sI32
F0.019880715705765408
sI33
F0.027833001988071572
sI34
F0.023856858846918488
sI35
F0.031809145129224649
sI36
F0.017892644135188866
sI37
F0.039761431411530816
sI38
F0.02186878727634195
sI39
F0.037773359840954271
ssI19
(dp20
I0
F0.023809523809523808
sI1
F0.01636904761904762
sI2
F0.023809523809523808
sI3
F0.01636904761904762
sI4
F0.025297619047619048
sI5
F0.011904761904761904
sI6
F0.038690476190476192
sI7
F0.019345238095238096
sI8
F0.040178571428571432
sI9
F0.02976190476190476
sI10
F0.03125
sI11
F0.040178571428571432
sI12
F0.034226190476190479
sI13
F0.0074404761904761901
sI14
F0.022321428571428572
sI15
F0.025297619047619048
sI16
F0.026785714285714284
sI17
F0.01636904761904762
sI18
F0.040178571428571432
sI19
F0.034226190476190479
sI20
F0.020833333333333332
sI21
F0.013392857142857142
sI22
F0.034226190476190479
sI23
F0.03273809523809524
sI24
F0.034226190476190479
sI25
F0.022321428571428572
sI26
F0.035714285714285712
sI27
F0.026785714285714284
sI28
F0.0089285714285714281
sI29
F0.0059523809523809521
sI30
F0.035714285714285712
sI31
F0.01488095238095238
sI32
F0.017857142857142856
sI33
F0.028273809523809524
sI34
F0.020833333333333332
sI35
F0.023809523809523808
sI36
F0.026785714285714284
sI37
F0.026785714285714284
sI38
F0.01488095238095238
sI39
F0.03125
ssI20
(dp21
I0
F0.02030456852791878
sI1
F0.038917089678510999
sI2
F0.025380710659898477
sI3
F0.011844331641285956
sI4
F0.027072758037225041
sI5
F0.023688663282571912
sI6
F0.04060913705583756
sI7
F0.023688663282571912
sI8
F0.064297800338409469
sI9
F0.025380710659898477
sI10
F0.032148900169204735
sI11
F0.02030456852791878
sI12
F0.013536379018612521
sI13
F0.02030456852791878
sI14
F0.025380710659898477
sI15
F0.018612521150592216
sI16
F0.015228426395939087
sI17
F0.018612521150592216
sI18
F0.033840947546531303
sI19
F0.028764805414551606
sI20
F0.043993231810490696
sI21
F0.013536379018612521
sI22
F0.028764805414551606
sI23
F0.018612521150592216
sI24
F0.018612521150592216
sI25
F0.0084602368866328256
sI26
F0.037225042301184431
sI27
F0.033840947546531303
sI28
F0.021996615905245348
sI29
F0.015228426395939087
sI30
F0.023688663282571912
sI31
F0.032148900169204735
sI32
F0.04060913705583756
sI33
F0.021996615905245348
sI34
F0.01015228426395939
sI35
F0.015228426395939087
sI36
F0.02030456852791878
sI37
F0.018612521150592216
sI38
F0.0067681895093062603
sI39
F0.042301184433164128
ssI21
(dp22
I0
F0.045569620253164557
sI1
F0.0094936708860759497
sI2
F0.025316455696202531
sI3
F0.033544303797468353
sI4
F0.025949367088607594
sI5
F0.028481012658227847
sI6
F0.046202531645569624
sI7
F0.011392405063291139
sI8
F0.012658227848101266
sI9
F0.040506329113924051
sI10
F0.024683544303797468
sI11
F0.031645569620253167
sI12
F0.017721518987341773
sI13
F0.021518987341772152
sI14
F0.010759493670886076
sI15
F0.018987341772151899
sI16
F0.022784810126582278
sI17
F0.025316455696202531
sI18
F0.018354430379746836
sI19
F0.018987341772151899
sI20
F0.020253164556962026
sI21
F0.019620253164556962
sI22
F0.019620253164556962
sI23
F0.029746835443037974
sI24
F0.022784810126582278
sI25
F0.051265822784810129
sI26
F0.013291139240506329
sI27
F0.015189873417721518
sI28
F0.028481012658227847
sI29
F0.016455696202531647
sI30
F0.035443037974683546
sI31
F0.032911392405063293
sI32
F0.015189873417721518
sI33
F0.024683544303797468
sI34
F0.016455696202531647
sI35
F0.015822784810126583
sI36
F0.025949367088607594
sI37
F0.039873417721518985
sI38
F0.024050632911392405
sI39
F0.043037974683544304
ssI22
(dp23
I0
F0.026582278481012658
sI1
F0.012658227848101266
sI2
F0.013924050632911392
sI3
F0.028481012658227847
sI4
F0.027215189873417721
sI5
F0.021518987341772152
sI6
F0.01708860759493671
sI7
F0.037341772151898732
sI8
F0.020886075949367089
sI9
F0.020253164556962026
sI10
F0.015822784810126583
sI11
F0.010759493670886076
sI12
F0.033544303797468353
sI13
F0.013291139240506329
sI14
F0.02911392405063291
sI15
F0.02911392405063291
sI16
F0.014556962025316455
sI17
F0.012658227848101266
sI18
F0.022784810126582278
sI19
F0.040506329113924051
sI20
F0.022151898734177215
sI21
F0.030379746835443037
sI22
F0.022151898734177215
sI23
F0.031645569620253167
sI24
F0.032278481012658226
sI25
F0.017721518987341773
sI26
F0.021518987341772152
sI27
F0.026582278481012658
sI28
F0.022784810126582278
sI29
F0.044303797468354431
sI30
F0.041139240506329111
sI31
F0.026582278481012658
sI32
F0.011392405063291139
sI33
F0.037341772151898732
sI34
F0.032278481012658226
sI35
F0.035443037974683546
sI36
F0.024050632911392405
sI37
F0.026582278481012658
sI38
F0.021518987341772152
sI39
F0.024050632911392405
ssI23
(dp24
I0
F0.020125786163522012
sI1
F0.025157232704402517
sI2
F0.020125786163522012
sI3
F0.042767295597484274
sI4
F0.022641509433962263
sI5
F0.01509433962264151
sI6
F0.054088050314465411
sI7
F0.022641509433962263
sI8
F0.010062893081761006
sI9
F0.021383647798742137
sI10
F0.022641509433962263
sI11
F0.052830188679245285
sI12
F0.025157232704402517
sI13
F0.041509433962264149
sI14
F0.040251572327044023
sI15
F0.012578616352201259
sI16
F0.016352201257861635
sI17
F0.011320754716981131
sI18
F0.012578616352201259
sI19
F0.016352201257861635
sI20
F0.022641509433962263
sI21
F0.011320754716981131
sI22
F0.026415094339622643
sI23
F0.030188679245283019
sI24
F0.05157232704402516
sI25
F0.033962264150943396
sI26
F0.01509433962264151
sI27
F0.028930817610062894
sI28
F0.013836477987421384
sI29
F0.01509433962264151
sI30
F0.027672955974842768
sI31
F0.021383647798742137
sI32
F0.016352201257861635
sI33
F0.03270440251572327
sI34
F0.025157232704402517
sI35
F0.030188679245283019
sI36
F0.011320754716981131
sI37
F0.035220125786163521
sI38
F0.030188679245283019
sI39
F0.01509433962264151
ssI24
(dp25
I0
F0.058748403575989781
sI1
F0.054916985951468711
sI2
F0.028097062579821201
sI3
F0.01277139208173691
sI4
F0.01277139208173691
sI5
F0.020434227330779056
sI6
F0.017879948914431672
sI7
F0.052362707535121331
sI8
F0.016602809706257982
sI9
F0.020434227330779056
sI10
F0.0089399744572158362
sI11
F0.029374201787994891
sI12
F0.01532567049808429
sI13
F0.030651340996168581
sI14
F0.02681992337164751
sI15
F0.030651340996168581
sI16
F0.0140485312899106
sI17
F0.05108556832694764
sI18
F0.060025542784163471
sI19
F0.019157088122605363
sI20
F0.031928480204342274
sI21
F0.040868454661558112
sI22
F0.021711366538952746
sI23
F0.01277139208173691
sI24
F0.019157088122605363
sI25
F0.017879948914431672
sI26
F0.020434227330779056
sI27
F0.01277139208173691
sI28
F0.033205619412515965
sI29
F0.020434227330779056
sI30
F0.020434227330779056
sI31
F0.010217113665389528
sI32
F0.016602809706257982
sI33
F0.0076628352490421452
sI34
F0.02554278416347382
sI35
F0.021711366538952746
sI36
F0.01532567049808429
sI37
F0.02554278416347382
sI38
F0.017879948914431672
sI39
F0.02681992337164751
ssI25
(dp26
I0
F0.0063224446786090622
sI1
F0.014752370916754479
sI2
F0.012644889357218124
sI3
F0.035827186512118019
sI4
F0.016859852476290831
sI5
F0.020021074815595362
sI6
F0.032665964172813484
sI7
F0.026343519494204427
sI8
F0.033719704952581663
sI9
F0.01053740779768177
sI10
F0.027397260273972601
sI11
F0.029504741833508957
sI12
F0.056902002107481559
sI13
F0.013698630136986301
sI14
F0.016859852476290831
sI15
F0.028451001053740779
sI16
F0.04214963119072708
sI17
F0.01053740779768177
sI18
F0.033719704952581663
sI19
F0.012644889357218124
sI20
F0.0073761854583772393
sI21
F0.033719704952581663
sI22
F0.054794520547945202
sI23
F0.038988408851422553
sI24
F0.014752370916754479
sI25
F0.04214963119072708
sI26
F0.035827186512118019
sI27
F0.02107481559536354
sI28
F0.011591148577449948
sI29
F0.033719704952581663
sI30
F0.026343519494204427
sI31
F0.013698630136986301
sI32
F0.020021074815595362
sI33
F0.029504741833508957
sI34
F0.018967334035827187
sI35
F0.034773445732349841
sI36
F0.031612223393045313
sI37
F0.017913593256059009
sI38
F0.016859852476290831
sI39
F0.014752370916754479
ssI26
(dp27
I0
F0.0091659028414298807
sI1
F0.018331805682859761
sI2
F0.011915673693858845
sI3
F0.011915673693858845
sI4
F0.024747937671860679
sI5
F0.022914757103574702
sI6
F0.043996333638863426
sI7
F0.025664527956003668
sI8
F0.0384967919340055
sI9
F0.010082493125572869
sI10
F0.01924839596700275
sI11
F0.022914757103574702
sI12
F0.030247479376718608
sI13
F0.015582034830430797
sI14
F0.028414298808432631
sI15
F0.02933088909257562
sI16
F0.01466544454628781
sI17
F0.025664527956003668
sI18
F0.026581118240146653
sI19
F0.039413382218148489
sI20
F0.033913840513290557
sI21
F0.026581118240146653
sI22
F0.023831347387717691
sI23
F0.011915673693858845
sI24
F0.02933088909257562
sI25
F0.015582034830430797
sI26
F0.01924839596700275
sI27
F0.032997250229147568
sI28
F0.032080659945004586
sI29
F0.026581118240146653
sI30
F0.065077910174152154
sI31
F0.01466544454628781
sI32
F0.021081576535288724
sI33
F0.0073327222731439049
sI34
F0.044912923923006415
sI35
F0.02933088909257562
sI36
F0.031164069660861594
sI37
F0.020164986251145739
sI38
F0.028414298808432631
sI39
F0.016498625114573784
ssI27
(dp28
I0
F0.034810126582278479
sI1
F0.017721518987341773
sI2
F0.022151898734177215
sI3
F0.012658227848101266
sI4
F0.018987341772151899
sI5
F0.026582278481012658
sI6
F0.029746835443037974
sI7
F0.01708860759493671
sI8
F0.013924050632911392
sI9
F0.032278481012658226
sI10
F0.034177215189873419
sI11
F0.028481012658227847
sI12
F0.02911392405063291
sI13
F0.010126582278481013
sI14
F0.020886075949367089
sI15
F0.027848101265822784
sI16
F0.024050632911392405
sI17
F0.021518987341772152
sI18
F0.020886075949367089
sI19
F0.028481012658227847
sI20
F0.025949367088607594
sI21
F0.018987341772151899
sI22
F0.070886075949367092
sI23
F0.018987341772151899
sI24
F0.02911392405063291
sI25
F0.02911392405063291
sI26
F0.016455696202531647
sI27
F0.041772151898734178
sI28
F0.027848101265822784
sI29
F0.037341772151898732
sI30
F0.025949367088607594
sI31
F0.019620253164556962
sI32
F0.029746835443037974
sI33
F0.020253164556962026
sI34
F0.0094936708860759497
sI35
F0.021518987341772152
sI36
F0.018987341772151899
sI37
F0.027848101265822784
sI38
F0.0082278481012658233
sI39
F0.030379746835443037
ssI28
(dp29
I0
F0.015189873417721518
sI1
F0.026582278481012658
sI2
F0.034810126582278479
sI3
F0.030379746835443037
sI4
F0.021518987341772152
sI5
F0.021518987341772152
sI6
F0.012025316455696202
sI7
F0.015822784810126583
sI8
F0.021518987341772152
sI9
F0.032278481012658226
sI10
F0.014556962025316455
sI11
F0.025316455696202531
sI12
F0.013924050632911392
sI13
F0.024683544303797468
sI14
F0.013924050632911392
sI15
F0.037341772151898732
sI16
F0.04746835443037975
sI17
F0.018354430379746836
sI18
F0.032278481012658226
sI19
F0.020253164556962026
sI20
F0.013291139240506329
sI21
F0.057594936708860761
sI22
F0.024683544303797468
sI23
F0.025316455696202531
sI24
F0.016455696202531647
sI25
F0.029746835443037974
sI26
F0.017721518987341773
sI27
F0.04746835443037975
sI28
F0.022784810126582278
sI29
F0.046202531645569624
sI30
F0.0310126582278481
sI31
F0.037974683544303799
sI32
F0.018354430379746836
sI33
F0.025316455696202531
sI34
F0.02911392405063291
sI35
F0.019620253164556962
sI36
F0.013924050632911392
sI37
F0.0088607594936708865
sI38
F0.013291139240506329
sI39
F0.021518987341772152
ssI29
(dp30
I0
F0.028481012658227847
sI1
F0.037974683544303799
sI2
F0.026582278481012658
sI3
F0.015189873417721518
sI4
F0.010759493670886076
sI5
F0.022784810126582278
sI6
F0.027215189873417721
sI7
F0.024683544303797468
sI8
F0.034177215189873419
sI9
F0.01708860759493671
sI10
F0.013291139240506329
sI11
F0.020886075949367089
sI12
F0.021518987341772152
sI13
F0.039240506329113925
sI14
F0.050632911392405063
sI15
F0.01708860759493671
sI16
F0.028481012658227847
sI17
F0.013291139240506329
sI18
F0.027215189873417721
sI19
F0.025949367088607594
sI20
F0.041772151898734178
sI21
F0.022784810126582278
sI22
F0.025949367088607594
sI23
F0.026582278481012658
sI24
F0.0088607594936708865
sI25
F0.016455696202531647
sI26
F0.020253164556962026
sI27
F0.025316455696202531
sI28
F0.0063291139240506328
sI29
F0.032911392405063293
sI30
F0.023417721518987342
sI31
F0.023417721518987342
sI32
F0.025949367088607594
sI33
F0.027215189873417721
sI34
F0.035443037974683546
sI35
F0.012658227848101266
sI36
F0.017721518987341773
sI37
F0.010759493670886076
sI38
F0.036708860759493672
sI39
F0.056962025316455694
ssI30
(dp31
I0
F0.011842105263157895
sI1
F0.032894736842105261
sI2
F0.021052631578947368
sI3
F0.015789473684210527
sI4
F0.017105263157894738
sI5
F0.026315789473684209
sI6
F0.025000000000000001
sI7
F0.050000000000000003
sI8
F0.028947368421052631
sI9
F0.010526315789473684
sI10
F0.0078947368421052634
sI11
F0.017105263157894738
sI12
F0.031578947368421054
sI13
F0.038157894736842106
sI14
F0.02763157894736842
sI15
F0.034210526315789476
sI16
F0.013157894736842105
sI17
F0.036842105263157891
sI18
F0.025000000000000001
sI19
F0.013157894736842105
sI20
F0.034210526315789476
sI21
F0.039473684210526314
sI22
F0.032894736842105261
sI23
F0.044736842105263158
sI24
F0.026315789473684209
sI25
F0.019736842105263157
sI26
F0.018421052631578946
sI27
F0.018421052631578946
sI28
F0.019736842105263157
sI29
F0.028947368421052631
sI30
F0.018421052631578946
sI31
F0.017105263157894738
sI32
F0.019736842105263157
sI33
F0.019736842105263157
sI34
F0.022368421052631579
sI35
F0.043421052631578951
sI36
F0.030263157894736843
sI37
F0.028947368421052631
sI38
F0.011842105263157895
sI39
F0.021052631578947368
ssI31
(dp32
I0
F0.008678237650200267
sI1
F0.040720961281708948
sI2
F0.02336448598130841
sI3
F0.019359145527369826
sI4
F0.034712950600801068
sI5
F0.017356475300400534
sI6
F0.027369826435246995
sI7
F0.031375166889185582
sI8
F0.030040053404539385
sI9
F0.017356475300400534
sI10
F0.019359145527369826
sI11
F0.030707610146862484
sI12
F0.034045393858477969
sI13
F0.01335113484646195
sI14
F0.024032042723631509
sI15
F0.038718291054739652
sI16
F0.034712950600801068
sI17
F0.012683578104138851
sI18
F0.015353805073431242
sI19
F0.027369826435246995
sI20
F0.015353805073431242
sI21
F0.016688918558077435
sI22
F0.028037383177570093
sI23
F0.021361815754339118
sI24
F0.010680907877169559
sI25
F0.016688918558077435
sI26
F0.017356475300400534
sI27
F0.039385847797062751
sI28
F0.024699599465954607
sI29
F0.024032042723631509
sI30
F0.026034712950600801
sI31
F0.041388518024032039
sI32
F0.018691588785046728
sI33
F0.025367156208277702
sI34
F0.018691588785046728
sI35
F0.022696929238985315
sI36
F0.040053404539385849
sI37
F0.034045393858477969
sI38
F0.018691588785046728
sI39
F0.039385847797062751
ssI32
(dp33
I0
F0.023875114784205693
sI1
F0.018365472910927456
sI2
F0.018365472910927456
sI3
F0.021120293847566574
sI4
F0.011937557392102846
sI5
F0.026629935720844811
sI6
F0.0091827364554637279
sI7
F0.025711662075298437
sI8
F0.03489439853076217
sI9
F0.025711662075298437
sI10
F0.044995408631772267
sI11
F0.022038567493112948
sI12
F0.022038567493112948
sI13
F0.027548209366391185
sI14
F0.021120293847566574
sI15
F0.017447199265381085
sI16
F0.023875114784205693
sI17
F0.028466483011937556
sI18
F0.031221303948576674
sI19
F0.040404040404040407
sI20
F0.035812672176308541
sI21
F0.023875114784205693
sI22
F0.020202020202020204
sI23
F0.01928374655647383
sI24
F0.017447199265381085
sI25
F0.016528925619834711
sI26
F0.010101010101010102
sI27
F0.044995408631772267
sI28
F0.022956841138659319
sI29
F0.026629935720844811
sI30
F0.03948576675849403
sI31
F0.026629935720844811
sI32
F0.033976124885215793
sI33
F0.036730945821854911
sI34
F0.028466483011937556
sI35
F0.0091827364554637279
sI36
F0.017447199265381085
sI37
F0.032139577594123052
sI38
F0.026629935720844811
sI39
F0.016528925619834711
ssI33
(dp34
I0
F0.027966101694915254
sI1
F0.012711864406779662
sI2
F0.015254237288135594
sI3
F0.0084745762711864406
sI4
F0.033050847457627118
sI5
F0.038135593220338986
sI6
F0.013559322033898305
sI7
F0.025423728813559324
sI8
F0.037288135593220341
sI9
F0.031355932203389829
sI10
F0.011864406779661017
sI11
F0.01864406779661017
sI12
F0.047457627118644069
sI13
F0.063559322033898302
sI14
F0.042372881355932202
sI15
F0.037288135593220341
sI16
F0.020338983050847456
sI17
F0.022033898305084745
sI18
F0.017796610169491526
sI19
F0.032203389830508473
sI20
F0.02288135593220339
sI21
F0.024576271186440679
sI22
F0.040677966101694912
sI23
F0.035593220338983052
sI24
F0.029661016949152543
sI25
F0.019491525423728815
sI26
F0.027966101694915254
sI27
F0.017796610169491526
sI28
F0.019491525423728815
sI29
F0.0084745762711864406
sI30
F0.046610169491525424
sI31
F0.016949152542372881
sI32
F0.012711864406779662
sI33
F0.016949152542372881
sI34
F0.021186440677966101
sI35
F0.016101694915254237
sI36
F0.012711864406779662
sI37
F0.017796610169491526
sI38
F0.024576271186440679
sI39
F0.011016949152542373
ssI34
(dp35
I0
F0.01557285873192436
sI1
F0.03781979977753059
sI2
F0.016685205784204672
sI3
F0.013348164627363738
sI4
F0.032258064516129031
sI5
F0.03114571746384872
sI6
F0.035595105672969966
sI7
F0.020022246941045607
sI8
F0.035595105672969966
sI9
F0.024471635150166853
sI10
F0.026696329254727477
sI11
F0.03114571746384872
sI12
F0.010011123470522803
sI13
F0.02224694104560623
sI14
F0.046718576195773083
sI15
F0.0066740823136818691
sI16
F0.017797552836484983
sI17
F0.04449388209121246
sI18
F0.021134593993325918
sI19
F0.03114571746384872
sI20
F0.018909899888765295
sI21
F0.010011123470522803
sI22
F0.023359288097886542
sI23
F0.026696329254727477
sI24
F0.036707452725250278
sI25
F0.018909899888765295
sI26
F0.024471635150166853
sI27
F0.014460511679644048
sI28
F0.017797552836484983
sI29
F0.030033370411568408
sI30
F0.032258064516129031
sI31
F0.01557285873192436
sI32
F0.017797552836484983
sI33
F0.027808676307007785
sI34
F0.020022246941045607
sI35
F0.030033370411568408
sI36
F0.028921023359288096
sI37
F0.050055617352614018
sI38
F0.01557285873192436
sI39
F0.020022246941045607
ssI35
(dp36
I0
F0.027848101265822784
sI1
F0.026582278481012658
sI2
F0.049367088607594936
sI3
F0.0082278481012658233
sI4
F0.011392405063291139
sI5
F0.020886075949367089
sI6
F0.02911392405063291
sI7
F0.025316455696202531
sI8
F0.025316455696202531
sI9
F0.038607594936708858
sI10
F0.015189873417721518
sI11
F0.025316455696202531
sI12
F0.038607594936708858
sI13
F0.0050632911392405064
sI14
F0.028481012658227847
sI15
F0.024050632911392405
sI16
F0.028481012658227847
sI17
F0.018987341772151899
sI18
F0.023417721518987342
sI19
F0.026582278481012658
sI20
F0.025949367088607594
sI21
F0.011392405063291139
sI22
F0.013291139240506329
sI23
F0.020886075949367089
sI24
F0.018354430379746836
sI25
F0.024683544303797468
sI26
F0.034810126582278479
sI27
F0.016455696202531647
sI28
F0.022784810126582278
sI29
F0.034177215189873419
sI30
F0.043037974683544304
sI31
F0.02911392405063291
sI32
F0.025949367088607594
sI33
F0.033544303797468353
sI34
F0.035443037974683546
sI35
F0.037341772151898732
sI36
F0.010126582278481013
sI37
F0.020253164556962026
sI38
F0.019620253164556962
sI39
F0.025949367088607594
ssI36
(dp37
I0
F0.03272727272727273
sI1
F0.02690909090909091
sI2
F0.012363636363636363
sI3
F0.033454545454545452
sI4
F0.03781818181818182
sI5
F0.01890909090909091
sI6
F0.02690909090909091
sI7
F0.024727272727272726
sI8
F0.021090909090909091
sI9
F0.026181818181818181
sI10
F0.029818181818181817
sI11
F0.02690909090909091
sI12
F0.015272727272727273
sI13
F0.019636363636363636
sI14
F0.019636363636363636
sI15
F0.015272727272727273
sI16
F0.0080000000000000002
sI17
F0.019636363636363636
sI18
F0.02181818181818182
sI19
F0.021090909090909091
sI20
F0.021090909090909091
sI21
F0.024
sI22
F0.023272727272727271
sI23
F0.025454545454545455
sI24
F0.048000000000000001
sI25
F0.02181818181818182
sI26
F0.030545454545454546
sI27
F0.029818181818181817
sI28
F0.044363636363636362
sI29
F0.022545454545454546
sI30
F0.031272727272727271
sI31
F0.034181818181818181
sI32
F0.024
sI33
F0.022545454545454546
sI34
F0.028363636363636365
sI35
F0.02181818181818182
sI36
F0.024
sI37
F0.019636363636363636
sI38
F0.022545454545454546
sI39
F0.022545454545454546
ssI37
(dp38
I0
F0.014778325123152709
sI1
F0.012315270935960592
sI2
F0.023399014778325122
sI3
F0.018472906403940888
sI4
F0.04064039408866995
sI5
F0.013546798029556651
sI6
F0.014778325123152709
sI7
F0.018472906403940888
sI8
F0.02832512315270936
sI9
F0.014778325123152709
sI10
F0.025862068965517241
sI11
F0.044334975369458129
sI12
F0.0086206896551724137
sI13
F0.02832512315270936
sI14
F0.02832512315270936
sI15
F0.0086206896551724137
sI16
F0.024630541871921183
sI17
F0.01600985221674877
sI18
F0.019704433497536946
sI19
F0.027093596059113302
sI20
F0.0061576354679802959
sI21
F0.032019704433497539
sI22
F0.061576354679802957
sI23
F0.049261083743842367
sI24
F0.038177339901477834
sI25
F0.030788177339901478
sI26
F0.02832512315270936
sI27
F0.027093596059113302
sI28
F0.029556650246305417
sI29
F0.019704433497536946
sI30
F0.023399014778325122
sI31
F0.012315270935960592
sI32
F0.013546798029556651
sI33
F0.081280788177339899
sI34
F0.017241379310344827
sI35
F0.018472906403940888
sI36
F0.013546798029556651
sI37
F0.011083743842364532
sI38
F0.024630541871921183
sI39
F0.030788177339901478
ssI38
(dp39
I0
F0.017721518987341773
sI1
F0.019620253164556962
sI2
F0.046202531645569624
sI3
F0.01708860759493671
sI4
F0.032278481012658226
sI5
F0.012658227848101266
sI6
F0.027215189873417721
sI7
F0.029746835443037974
sI8
F0.019620253164556962
sI9
F0.034177215189873419
sI10
F0.042405063291139238
sI11
F0.021518987341772152
sI12
F0.025316455696202531
sI13
F0.021518987341772152
sI14
F0.019620253164556962
sI15
F0.016455696202531647
sI16
F0.018354430379746836
sI17
F0.04493670886075949
sI18
F0.055696202531645568
sI19
F0.013924050632911392
sI20
F0.013291139240506329
sI21
F0.013924050632911392
sI22
F0.022151898734177215
sI23
F0.030379746835443037
sI24
F0.027848101265822784
sI25
F0.029746835443037974
sI26
F0.018987341772151899
sI27
F0.017721518987341773
sI28
F0.036708860759493672
sI29
F0.024050632911392405
sI30
F0.015189873417721518
sI31
F0.019620253164556962
sI32
F0.022784810126582278
sI33
F0.027848101265822784
sI34
F0.020886075949367089
sI35
F0.022151898734177215
sI36
F0.020886075949367089
sI37
F0.036708860759493672
sI38
F0.027848101265822784
sI39
F0.015189873417721518
ssI39
(dp40
I0
F0.027741083223249668
sI1
F0.035667107001321002
sI2
F0.027741083223249668
sI3
F0.019815059445178335
sI4
F0.031704095112285335
sI5
F0.010568031704095112
sI6
F0.027741083223249668
sI7
F0.025099075297225892
sI8
F0.022457067371202115
sI9
F0.039630118890356669
sI10
F0.023778071334214002
sI11
F0.036988110964332896
sI12
F0.034346103038309116
sI13
F0.011889035667107001
sI14
F0.040951122853368563
sI15
F0.030383091149273449
sI16
F0.026420079260237782
sI17
F0.019815059445178335
sI18
F0.015852047556142668
sI19
F0.029062087186261559
sI20
F0.022457067371202115
sI21
F0.018494055482166448
sI22
F0.031704095112285335
sI23
F0.018494055482166448
sI24
F0.030383091149273449
sI25
F0.023778071334214002
sI26
F0.017173051519154558
sI27
F0.036988110964332896
sI28
F0.0079260237780713338
sI29
F0.017173051519154558
sI30
F0.0079260237780713338
sI31
F0.047556142668428003
sI32
F0.034346103038309116
sI33
F0.014531043593130779
sI34
F0.013210039630118891
sI35
F0.019815059445178335
sI36
F0.019815059445178335
sI37
F0.034346103038309116
sI38
F0.023778071334214002
sI39
F0.022457067371202115
ssI40
(dp41
I0
F0.053797468354430382
sI1
F0.025316455696202531
sI2
F0.063924050632911386
sI3
F0.011392405063291139
sI4
F0.025316455696202531
sI5
F0.039240506329113925
sI6
F0.011392405063291139
sI7
F0.017721518987341773
sI8
F0.016455696202531647
sI9
F0.035443037974683546
sI10
F0.020886075949367089
sI11
F0.020253164556962026
sI12
F0.025316455696202531
sI13
F0.018987341772151899
sI14
F0.020886075949367089
sI15
F0.014556962025316455
sI16
F0.034177215189873419
sI17
F0.010126582278481013
sI18
F0.042405063291139238
sI19
F0.015189873417721518
sI20
F0.01708860759493671
sI21
F0.025316455696202531
sI22
F0.022784810126582278
sI23
F0.015822784810126583
sI24
F0.036708860759493672
sI25
F0.029746835443037974
sI26
F0.033544303797468353
sI27
F0.016455696202531647
sI28
F0.02911392405063291
sI29
F0.013924050632911392
sI30
F0.032911392405063293
sI31
F0.038607594936708858
sI32
F0.0088607594936708865
sI33
F0.046835443037974683
sI34
F0.016455696202531647
sI35
F0.015189873417721518
sI36
F0.019620253164556962
sI37
F0.022784810126582278
sI38
F0.020886075949367089
sI39
F0.014556962025316455
ssI41
(dp42
I0
F0.067088607594936706
sI1
F0.013924050632911392
sI2
F0.024683544303797468
sI3
F0.025316455696202531
sI4
F0.0088607594936708865
sI5
F0.015189873417721518
sI6
F0.034810126582278479
sI7
F0.018354430379746836
sI8
F0.030379746835443037
sI9
F0.031645569620253167
sI10
F0.010759493670886076
sI11
F0.04493670886075949
sI12
F0.023417721518987342
sI13
F0.041772151898734178
sI14
F0.016455696202531647
sI15
F0.022151898734177215
sI16
F0.019620253164556962
sI17
F0.020253164556962026
sI18
F0.04810126582278481
sI19
F0.018987341772151899
sI20
F0.043037974683544304
sI21
F0.0082278481012658233
sI22
F0.024050632911392405
sI23
F0.013924050632911392
sI24
F0.013291139240506329
sI25
F0.01708860759493671
sI26
F0.0088607594936708865
sI27
F0.029746835443037974
sI28
F0.015822784810126583
sI29
F0.025949367088607594
sI30
F0.018354430379746836
sI31
F0.043670886075949364
sI32
F0.024683544303797468
sI33
F0.018354430379746836
sI34
F0.031645569620253167
sI35
F0.018987341772151899
sI36
F0.021518987341772152
sI37
F0.024683544303797468
sI38
F0.032278481012658226
sI39
F0.02911392405063291
ssI42
(dp43
I0
F0.025949367088607594
sI1
F0.027215189873417721
sI2
F0.020253164556962026
sI3
F0.0310126582278481
sI4
F0.021518987341772152
sI5
F0.02911392405063291
sI6
F0.039240506329113925
sI7
F0.039240506329113925
sI8
F0.027215189873417721
sI9
F0.014556962025316455
sI10
F0.022784810126582278
sI11
F0.017721518987341773
sI12
F0.024050632911392405
sI13
F0.020253164556962026
sI14
F0.028481012658227847
sI15
F0.02911392405063291
sI16
F0.013924050632911392
sI17
F0.044303797468354431
sI18
F0.025949367088607594
sI19
F0.017721518987341773
sI20
F0.022784810126582278
sI21
F0.031645569620253167
sI22
F0.026582278481012658
sI23
F0.024050632911392405
sI24
F0.010759493670886076
sI25
F0.022784810126582278
sI26
F0.022151898734177215
sI27
F0.030379746835443037
sI28
F0.027215189873417721
sI29
F0.015822784810126583
sI30
F0.025949367088607594
sI31
F0.026582278481012658
sI32
F0.025949367088607594
sI33
F0.017721518987341773
sI34
F0.033544303797468353
sI35
F0.010126582278481013
sI36
F0.020886075949367089
sI37
F0.041139240506329111
sI38
F0.020886075949367089
sI39
F0.023417721518987342
ssI43
(dp44
I0
F0.020886075949367089
sI1
F0.020886075949367089
sI2
F0.010759493670886076
sI3
F0.017721518987341773
sI4
F0.0094936708860759497
sI5
F0.0310126582278481
sI6
F0.015189873417721518
sI7
F0.024683544303797468
sI8
F0.017721518987341773
sI9
F0.027848101265822784
sI10
F0.034810126582278479
sI11
F0.025949367088607594
sI12
F0.018987341772151899
sI13
F0.013291139240506329
sI14
F0.020253164556962026
sI15
F0.012025316455696202
sI16
F0.025949367088607594
sI17
F0.039873417721518985
sI18
F0.031645569620253167
sI19
F0.033544303797468353
sI20
F0.016455696202531647
sI21
F0.036075949367088606
sI22
F0.021518987341772152
sI23
F0.015822784810126583
sI24
F0.030379746835443037
sI25
F0.020886075949367089
sI26
F0.034177215189873419
sI27
F0.022151898734177215
sI28
F0.027215189873417721
sI29
F0.027215189873417721
sI30
F0.036708860759493672
sI31
F0.029746835443037974
sI32
F0.023417721518987342
sI33
F0.028481012658227847
sI34
F0.043670886075949364
sI35
F0.027848101265822784
sI36
F0.034810126582278479
sI37
F0.020886075949367089
sI38
F0.015822784810126583
sI39
F0.034177215189873419
ssI44
(dp45
I0
F0.006962025316455696
sI1
F0.030379746835443037
sI2
F0.029746835443037974
sI3
F0.0056962025316455696
sI4
F0.0094936708860759497
sI5
F0.014556962025316455
sI6
F0.018987341772151899
sI7
F0.013924050632911392
sI8
F0.028481012658227847
sI9
F0.022784810126582278
sI10
F0.024050632911392405
sI11
F0.037974683544303799
sI12
F0.043037974683544304
sI13
F0.010759493670886076
sI14
F0.013291139240506329
sI15
F0.012025316455696202
sI16
F0.032911392405063293
sI17
F0.02911392405063291
sI18
F0.019620253164556962
sI19
F0.034177215189873419
sI20
F0.025316455696202531
sI21
F0.018354430379746836
sI22
F0.018354430379746836
sI23
F0.050000000000000003
sI24
F0.020253164556962026
sI25
F0.041139240506329111
sI26
F0.06139240506329114
sI27
F0.015822784810126583
sI28
F0.025949367088607594
sI29
F0.016455696202531647
sI30
F0.022151898734177215
sI31
F0.018987341772151899
sI32
F0.038607594936708858
sI33
F0.029746835443037974
sI34
F0.020253164556962026
sI35
F0.036708860759493672
sI36
F0.024683544303797468
sI37
F0.020253164556962026
sI38
F0.0310126582278481
sI39
F0.026582278481012658
ssI45
(dp46
I0
F0.024683544303797468
sI1
F0.017721518987341773
sI2
F0.021518987341772152
sI3
F0.032278481012658226
sI4
F0.013924050632911392
sI5
F0.022784810126582278
sI6
F0.018987341772151899
sI7
F0.024050632911392405
sI8
F0.021518987341772152
sI9
F0.027848101265822784
sI10
F0.013291139240506329
sI11
F0.027848101265822784
sI12
F0.020253164556962026
sI13
F0.012025316455696202
sI14
F0.027215189873417721
sI15
F0.022151898734177215
sI16
F0.028481012658227847
sI17
F0.044303797468354431
sI18
F0.017721518987341773
sI19
F0.034177215189873419
sI20
F0.039240506329113925
sI21
F0.027215189873417721
sI22
F0.014556962025316455
sI23
F0.015189873417721518
sI24
F0.014556962025316455
sI25
F0.027848101265822784
sI26
F0.024683544303797468
sI27
F0.029746835443037974
sI28
F0.055696202531645568
sI29
F0.0310126582278481
sI30
F0.037974683544303799
sI31
F0.034810126582278479
sI32
F0.014556962025316455
sI33
F0.038607594936708858
sI34
F0.025316455696202531
sI35
F0.022784810126582278
sI36
F0.01708860759493671
sI37
F0.025316455696202531
sI38
F0.020253164556962026
sI39
F0.010759493670886076
ssI46
(dp47
I0
F0.017721518987341773
sI1
F0.029746835443037974
sI2
F0.034177215189873419
sI3
F0.032278481012658226
sI4
F0.034810126582278479
sI5
F0.025949367088607594
sI6
F0.02911392405063291
sI7
F0.025316455696202531
sI8
F0.015189873417721518
sI9
F0.016455696202531647
sI10
F0.012025316455696202
sI11
F0.023417721518987342
sI12
F0.031645569620253167
sI13
F0.011392405063291139
sI14
F0.023417721518987342
sI15
F0.024050632911392405
sI16
F0.031645569620253167
sI17
F0.024050632911392405
sI18
F0.022784810126582278
sI19
F0.035443037974683546
sI20
F0.0063291139240506328
sI21
F0.012025316455696202
sI22
F0.033544303797468353
sI23
F0.028481012658227847
sI24
F0.027848101265822784
sI25
F0.038607594936708858
sI26
F0.036708860759493672
sI27
F0.032278481012658226
sI28
F0.041139240506329111
sI29
F0.022151898734177215
sI30
F0.01708860759493671
sI31
F0.010126582278481013
sI32
F0.013924050632911392
sI33
F0.033544303797468353
sI34
F0.025949367088607594
sI35
F0.032278481012658226
sI36
F0.020253164556962026
sI37
F0.029746835443037974
sI38
F0.024050632911392405
sI39
F0.013291139240506329
ssI47
(dp48
I0
F0.05499153976311337
sI1
F0.014382402707275803
sI2
F0.024534686971235193
sI3
F0.016074450084602367
sI4
F0.018612521150592216
sI5
F0.022842639593908629
sI6
F0.013536379018612521
sI7
F0.046531302876480544
sI8
F0.03976311336717428
sI9
F0.036379018612521151
sI10
F0.026226734348561761
sI11
F0.021996615905245348
sI12
F0.028764805414551606
sI13
F0.017766497461928935
sI14
F0.027072758037225041
sI15
F0.022842639593908629
sI16
F0.015228426395939087
sI17
F0.024534686971235193
sI18
F0.038917089678510999
sI19
F0.034686971235194583
sI20
F0.023688663282571912
sI21
F0.028764805414551606
sI22
F0.015228426395939087
sI23
F0.018612521150592216
sI24
F0.021150592216582064
sI25
F0.023688663282571912
sI26
F0.021996615905245348
sI27
F0.024534686971235193
sI28
F0.026226734348561761
sI29
F0.017766497461928935
sI30
F0.031302876480541454
sI31
F0.013536379018612521
sI32
F0.038917089678510999
sI33
F0.017766497461928935
sI34
F0.01015228426395939
sI35
F0.021150592216582064
sI36
F0.030456852791878174
sI37
F0.023688663282571912
sI38
F0.030456852791878174
sI39
F0.015228426395939087
ssI48
(dp49
I0
F0.039873417721518985
sI1
F0.017721518987341773
sI2
F0.014556962025316455
sI3
F0.0063291139240506328
sI4
F0.022151898734177215
sI5
F0.029746835443037974
sI6
F0.020886075949367089
sI7
F0.040506329113924051
sI8
F0.030379746835443037
sI9
F0.013924050632911392
sI10
F0.015189873417721518
sI11
F0.011392405063291139
sI12
F0.036075949367088606
sI13
F0.046202531645569624
sI14
F0.070253164556962025
sI15
F0.037974683544303799
sI16
F0.016455696202531647
sI17
F0.027215189873417721
sI18
F0.038607594936708858
sI19
F0.018354430379746836
sI20
F0.015822784810126583
sI21
F0.0082278481012658233
sI22
F0.013291139240506329
sI23
F0.0094936708860759497
sI24
F0.018987341772151899
sI25
F0.015822784810126583
sI26
F0.018354430379746836
sI27
F0.02911392405063291
sI28
F0.032911392405063293
sI29
F0.027215189873417721
sI30
F0.01708860759493671
sI31
F0.025949367088607594
sI32
F0.037974683544303799
sI33
F0.024683544303797468
sI34
F0.010759493670886076
sI35
F0.027848101265822784
sI36
F0.019620253164556962
sI37
F0.030379746835443037
sI38
F0.0310126582278481
sI39
F0.031645569620253167
ssI49
(dp50
I0
F0.020797227036395149
sI1
F0.022530329289428077
sI2
F0.024263431542461005
sI3
F0.039861351819757362
sI4
F0.0069324090121317154
sI5
F0.012131715771230503
sI6
F0.025996533795493933
sI7
F0.046793760831889082
sI8
F0.019064124783362217
sI9
F0.012131715771230503
sI10
F0.012131715771230503
sI11
F0.020797227036395149
sI12
F0.017331022530329289
sI13
F0.041594454072790298
sI14
F0.022530329289428077
sI15
F0.015597920277296361
sI16
F0.036395147313691506
sI17
F0.027729636048526862
sI18
F0.010398613518197574
sI19
F0.057192374350086658
sI20
F0.025996533795493933
sI21
F0.036395147313691506
sI22
F0.022530329289428077
sI23
F0.020797227036395149
sI24
F0.039861351819757362
sI25
F0.031195840554592721
sI26
F0.031195840554592721
sI27
F0.038128249566724434
sI28
F0.012131715771230503
sI29
F0.046793760831889082
sI30
F0.0069324090121317154
sI31
F0.015597920277296361
sI32
F0.012131715771230503
sI33
F0.034662045060658578
sI34
F0.024263431542461005
sI35
F0.010398613518197574
sI36
F0.022530329289428077
sI37
F0.029462738301559793
sI38
F0.029462738301559793
sI39
F0.017331022530329289
ss.