(dp0
I0
(dp1
I0
F0.0045072115384615389
sI1
F0.0043870192307692308
sI2
F0.0047475961538461543
sI3
F0.0045072115384615398
sI4
F0.0064903846153846157
sI5
F0.0044471153846153853
sI6
F0.0036658653846153846
sI7
F0.0046274038461538462
sI8
F0.0043870192307692308
sI9
F0.0045072115384615389
sI10
F0.0035456730769230769
sI11
F0.0045072115384615389
sI12
F0.0046274038461538479
sI13
F0.0072716346153846156
sI14
F0.0040264423076923081
sI15
F0.0070312500000000002
sI16
F0.0039663461538461554
sI17
F0.0042668269230769235
sI18
F0.0043870192307692308
sI19
F0.0040865384615384618
sI20
F0.0058293269230769258
sI21
F0.0052283653846153851
sI22
F0.0046274038461538471
sI23
F0.0066105769230769247
sI24
F0.0081730769230769235
sI25
F0.0043269230769230772
sI26
F0.0054687499999999997
sI27
F0.004326923076923078
sI28
F0.0052884615384615396
sI29
F0.0046274038461538479
sI30
F0.0060697115384615394
sI31
F0.0039663461538461536
sI32
F0.0043269230769230772
sI33
F0.80691105769230764
sI34
F0.0037259615384615382
sI35
F0.0072115384615384637
sI36
F0.0052283653846153851
sI37
F0.0043870192307692308
sI38
F0.0046874999999999998
sI39
F0.0049879807692307715
ssI1
(dp2
I0
F0.0040865384615384609
sI1
F0.0046875000000000016
sI2
F0.0060697115384615394
sI3
F0.0043269230769230763
sI4
F0.0044471153846153844
sI5
F0.0050480769230769242
sI6
F0.0044471153846153862
sI7
F0.0057091346153846142
sI8
F0.0044471153846153853
sI9
F0.0043870192307692317
sI10
F0.0039663461538461536
sI11
F0.004026442307692309
sI12
F0.0047475961538461561
sI13
F0.007391826923076922
sI14
F0.0047475961538461561
sI15
F0.0066706730769230784
sI16
F0.0048076923076923097
sI17
F0.0051682692307692324
sI18
F0.0042668269230769235
sI19
F0.0045673076923076943
sI20
F0.0045072115384615407
sI21
F0.0045072115384615398
sI22
F0.0039663461538461528
sI23
F0.0055889423076923087
sI24
F0.009074519230769228
sI25
F0.0039663461538461554
sI26
F0.0044471153846153862
sI27
F0.0045072115384615381
sI28
F0.0037860576923076927
sI29
F0.0047475961538461535
sI30
F0.005408653846153846
sI31
F0.0057692307692307713
sI32
F0.0046274038461538471
sI33
F0.80703124999999998
sI34
F0.0055889423076923087
sI35
F0.0056490384615384623
sI36
F0.0042067307692307708
sI37
F0.0065504807692307694
sI38
F0.0043269230769230772
sI39
F0.0037259615384615382
ssI2
(dp3
I0
F0.0095345345345345337
sI1
F0.0053678678678678688
sI2
F0.006794294294294294
sI3
F0.005855855855855855
sI4
F0.0049174174174174187
sI5
F0.0057432432432432418
sI6
F0.004391891891891893
sI7
F0.0082957957957957955
sI8
F0.0064189189189189201
sI9
F0.0045795795795795808
sI10
F0.0067192192192192194
sI11
F0.005367867867867868
sI12
F0.0058558558558558568
sI13
F0.059609609609609628
sI14
F0.0061186186186186192
sI15
F0.0067192192192192194
sI16
F0.0057807807807807813
sI17
F0.0054804804804804812
sI18
F0.0056306306306306304
sI19
F0.0072822822822822819
sI20
F0.0118993993993994
sI21
F0.0070195195195195213
sI22
F0.0056306306306306304
sI23
F0.46366366366366363
sI24
F0.084759759759759773
sI25
F0.0052552552552552548
sI26
F0.0072072072072072073
sI27
F0.005668168168168169
sI28
F0.0048048048048048037
sI29
F0.0047672672672672677
sI30
F0.14894894894894897
sI31
F0.0054054054054054048
sI32
F0.0052927927927927925
sI33
F0.01730480480480481
sI34
F0.01006006006006006
sI35
F0.0088213213213213203
sI36
F0.0095720720720720714
sI37
F0.0058558558558558559
sI38
F0.0055555555555555558
sI39
F0.0060435435435435437
ssI3
(dp4
I0
F0.036802270577105015
sI1
F0.0061494796594134364
sI2
F0.0056764427625354812
sI3
F0.005392620624408706
sI4
F0.0052034058656575235
sI5
F0.0052980132450331134
sI6
F0.0052980132450331143
sI7
F0.0056764427625354786
sI8
F0.0052034058656575235
sI9
F0.0044938505203405881
sI10
F0.0049195837275307491
sI11
F0.0066698202459791901
sI12
F0.0056291390728476828
sI13
F0.0071428571428571435
sI14
F0.0038315988647114481
sI15
F0.0071428571428571426
sI16
F0.0041627246925260188
sI17
F0.0051561021759697276
sI18
F0.0051087984862819317
sI19
F0.005912961210974458
sI20
F0.0079470198675496723
sI21
F0.005392620624408706
sI22
F0.005439924314096501
sI23
F0.69891201513718071
sI24
F0.018164616840113529
sI25
F0.0045411542100283839
sI26
F0.012251655629139076
sI27
F0.0045884578997161807
sI28
F0.005392620624408706
sI29
F0.0050614947965941359
sI30
F0.0074266792809839178
sI31
F0.0049195837275307491
sI32
F0.0060075685903500488
sI33
F0.019536423841059601
sI34
F0.022421948912015134
sI35
F0.0049195837275307491
sI36
F0.006906338694418165
sI37
F0.0065752128666035966
sI38
F0.0080889309366130573
sI39
F0.0046357615894039748
ssI4
(dp5
I0
F0.03479931682322801
sI1
F0.0044833475661827504
sI2
F0.0050384286934244248
sI3
F0.0032450896669513228
sI4
F0.007002561912894961
sI5
F0.0035439795046968399
sI6
F0.0048676345004269846
sI7
F0.010631938514090522
sI8
F0.0064047822374039293
sI9
F0.0043552519214346708
sI10
F0.0048249359521776248
sI11
F0.0035866780529461998
sI12
F0.0044406490179333905
sI13
F0.0064901793339026473
sI14
F0.004696840307429547
sI15
F0.0083262169086251066
sI16
F0.0047395388556789068
sI17
F0.0046114432109308282
sI18
F0.0042271562766865913
sI19
F0.005508112724167377
sI20
F0.013578138343296325
sI21
F0.0064474807856532866
sI22
F0.0049103330486763453
sI23
F0.012638770281810419
sI24
F0.084286934244235695
sI25
F0.0042698548249359529
sI26
F0.0044406490179333897
sI27
F0.0040563620836891546
sI28
F0.0042698548249359512
sI29
F0.0037574722459436374
sI30
F0.010333048676345003
sI31
F0.0054227156276686599
sI32
F0.0056362083689154574
sI33
F0.010631938514090519
sI34
F0.010290350128095645
sI35
F0.0065755764304013652
sI36
F0.65542271562766863
sI37
F0.0058923996584116147
sI38
F0.0048249359521776256
sI39
F0.0064901793339026473
ssI5
(dp6
I0
F0.0094978165938864635
sI1
F0.0084061135371179038
sI2
F0.0077510917030567672
sI3
F0.0089519650655021828
sI4
F0.013427947598253272
sI5
F0.0090611353711790351
sI6
F0.0079694323144104788
sI7
F0.011899563318777291
sI8
F0.0089519650655021828
sI9
F0.0084061135371179038
sI10
F0.0087336244541484694
sI11
F0.008296943231441048
sI12
F0.010371179039301308
sI13
F0.010698689956331877
sI14
F0.0098253275109170292
sI15
F0.0075327510917030539
sI16
F0.008296943231441048
sI17
F0.0076419213973799123
sI18
F0.0092794759825327519
sI19
F0.0081877729257641904
sI20
F0.01801310043668122
sI21
F0.5289301310043667
sI22
F0.0080786026200873329
sI23
F0.011026200873362441
sI24
F0.009934497816593885
sI25
F0.0091703056768558926
sI26
F0.011244541484716156
sI27
F0.0086244541484716171
sI28
F0.0087336244541484677
sI29
F0.008842794759825327
sI30
F0.016812227074235808
sI31
F0.0091703056768558944
sI32
F0.00949781659388646
sI33
F0.097379912663755452
sI34
F0.012772925764192139
sI35
F0.0085152838427947596
sI36
F0.0087336244541484729
sI37
F0.010807860262008735
sI38
F0.012445414847161572
sI39
F0.0080786026200873346
ssI6
(dp7
I0
F0.010917207792207791
sI1
F0.0050324675324675324
sI2
F0.0056412337662337655
sI3
F0.0051136363636363627
sI4
F0.01314935064935065
sI5
F0.0062499999999999986
sI6
F0.0067370129870129858
sI7
F0.0075892857142857125
sI8
F0.0059253246753246738
sI9
F0.0047889610389610388
sI10
F0.0062094155844155839
sI11
F0.0038555194805194801
sI12
F0.00487012987012987
sI13
F0.0065746753246753251
sI14
F0.0061282467532467518
sI15
F0.0056006493506493508
sI16
F0.0054383116883116875
sI17
F0.0065340909090909078
sI18
F0.0051542207792207775
sI19
F0.007508116883116883
sI20
F0.074918831168831176
sI21
F0.0063717532467532454
sI22
F0.0052759740259740251
sI23
F0.064610389610389618
sI24
F0.017167207792207796
sI25
F0.0052353896103896087
sI26
F0.021834415584415581
sI27
F0.0059253246753246738
sI28
F0.0064935064935064931
sI29
F0.0047483766233766232
sI30
F0.01221590909090909
sI31
F0.005275974025974026
sI32
F0.0065340909090909087
sI33
F0.13311688311688311
sI34
F0.033076298701298697
sI35
F0.0054788961038961031
sI36
F0.0063717532467532463
sI37
F0.44399350649350655
sI38
F0.0053571428571428563
sI39
F0.0069805194805194802
ssI7
(dp8
I0
F0.0054822753503709814
sI1
F0.0062242374278647979
sI2
F0.0045342126957955481
sI3
F0.0046166529266281949
sI4
F0.0073784006595218471
sI5
F0.0061830173124484749
sI6
F0.0058944765045342131
sI7
F0.0051937345424567186
sI8
F0.0045754328112118711
sI9
F0.0049051937345424568
sI10
F0.0053586150041220115
sI11
F0.0062242374278647979
sI12
F0.0050288540807914266
sI13
F0.0053998351195383345
sI14
F0.0054410552349546584
sI15
F0.0042868920032976092
sI16
F0.0045754328112118711
sI17
F0.0044929925803792251
sI18
F0.0047403132728771639
sI19
F0.0058120362737015662
sI20
F0.0046990931574608409
sI21
F0.0051525144270403956
sI22
F0.0061005770816158289
sI23
F0.0058944765045342131
sI24
F0.78738664468260511
sI25
F0.0046166529266281949
sI26
F0.0042044517724649632
sI27
F0.0036273701566364386
sI28
F0.0053998351195383345
sI29
F0.0047815333882934869
sI30
F0.0074196207749381684
sI31
F0.0047815333882934869
sI32
F0.0046578730420445179
sI33
F0.014056059356966197
sI34
F0.0038746908491343775
sI35
F0.0058944765045342131
sI36
F0.0041632316570486393
sI37
F0.0065539983511953837
sI38
F0.0051112943116240726
sI39
F0.0052761747732893655
ssI8
(dp9
I0
F0.0051587301587301586
sI1
F0.0065972222222222222
sI2
F0.0064980158730158725
sI3
F0.0062500000000000003
sI4
F0.010218253968253968
sI5
F0.0055555555555555549
sI6
F0.0051091269841269842
sI7
F0.0058531746031746032
sI8
F0.0056547619047619038
sI9
F0.0049603174603174609
sI10
F0.0062003968253968259
sI11
F0.0066468253968253958
sI12
F0.0036706349206349206
sI13
F0.012748015873015873
sI14
F0.0061507936507936515
sI15
F0.0048115079365079359
sI16
F0.0065972222222222213
sI17
F0.0062500000000000003
sI18
F0.0049107142857142856
sI19
F0.0062003968253968251
sI20
F0.0076884920634920639
sI21
F0.0058035714285714279
sI22
F0.0079365079365079361
sI23
F0.0062500000000000003
sI24
F0.71046626984126982
sI25
F0.0058035714285714288
sI26
F0.0053571428571428572
sI27
F0.0061507936507936506
sI28
F0.0050595238095238106
sI29
F0.0057043650793650799
sI30
F0.035367063492063491
sI31
F0.0057539682539682543
sI32
F0.0068948412698412688
sI33
F0.019394841269841267
sI34
F0.0044642857142857149
sI35
F0.0089285714285714281
sI36
F0.0069444444444444449
sI37
F0.0080357142857142849
sI38
F0.0060019841269841256
sI39
F0.0059523809523809521
ssI9
(dp10
I0
F0.004827586206896552
sI1
F0.0057142857142857151
sI2
F0.0043349753694581286
sI3
F0.006108374384236454
sI4
F0.0075369458128078824
sI5
F0.0049753694581280792
sI6
F0.0067980295566502456
sI7
F0.0057635467980295561
sI8
F0.0063546798029556649
sI9
F0.0059113300492610842
sI10
F0.005960591133004926
sI11
F0.0058128078817733997
sI12
F0.0068472906403940883
sI13
F0.0041379310344827587
sI14
F0.0053694581280788181
sI15
F0.0052709359605911336
sI16
F0.0057142857142857151
sI17
F0.0053201970443349754
sI18
F0.005566502463054188
sI19
F0.0051724137931034482
sI20
F0.0051724137931034491
sI21
F0.0054679802955665009
sI22
F0.0047783251231527085
sI23
F0.0051724137931034482
sI24
F0.77842364532019703
sI25
F0.0054187192118226608
sI26
F0.0045812807881773394
sI27
F0.0052709359605911336
sI28
F0.0046798029556650248
sI29
F0.0054679802955665026
sI30
F0.0056157635467980298
sI31
F0.0065024630541871921
sI32
F0.0049753694581280792
sI33
F0.0084236453201970464
sI34
F0.0036453201970443349
sI35
F0.0073891625615763543
sI36
F0.007241379310344828
sI37
F0.0053201970443349763
sI38
F0.0054187192118226599
sI39
F0.0075369458128078815
ssI10
(dp11
I0
F0.0049683544303797487
sI1
F0.0031012658227848105
sI2
F0.0035126582278481042
sI3
F0.0030696202531645582
sI4
F0.0038607594936708864
sI5
F0.0042721518987341783
sI6
F0.0030696202531645578
sI7
F0.0044303797468354441
sI8
F0.0046835443037974685
sI9
F0.0034493670886075966
sI10
F0.0034493670886075966
sI11
F0.0037025316455696206
sI12
F0.0027531645569620258
sI13
F0.0034177215189873426
sI14
F0.0033860759493670894
sI15
F0.0035443037974683561
sI16
F0.0031645569620253173
sI17
F0.0029746835443037983
sI18
F0.0038924050632911404
sI19
F0.0038607594936708859
sI20
F0.047500000000000001
sI21
F0.0034810126582278493
sI22
F0.0032594936708860772
sI23
F0.0051898734177215191
sI24
F0.0049683544303797487
sI25
F0.0027531645569620262
sI26
F0.78939873417721518
sI27
F0.0034177215189873426
sI28
F0.0025316455696202536
sI29
F0.0032594936708860768
sI30
F0.0045569620253164559
sI31
F0.0023734177215189874
sI32
F0.0046202531645569631
sI33
F0.0049683544303797487
sI34
F0.028417721518987343
sI35
F0.0032911392405063299
sI36
F0.0030379746835443046
sI37
F0.0034493670886075961
sI38
F0.0038924050632911412
sI39
F0.0030696202531645578
ssI11
(dp12
I0
F0.0043354430379746846
sI1
F0.0043354430379746846
sI2
F0.0024683544303797473
sI3
F0.0039556962025316476
sI4
F0.0045569620253164567
sI5
F0.0037974683544303813
sI6
F0.0028797468354430384
sI7
F0.0046835443037974694
sI8
F0.0039556962025316467
sI9
F0.0033227848101265826
sI10
F0.0030063291139240506
sI11
F0.0031645569620253168
sI12
F0.0039240506329113935
sI13
F0.0039556962025316476
sI14
F0.0037658227848101277
sI15
F0.0033860759493670885
sI16
F0.0038924050632911399
sI17
F0.0031012658227848114
sI18
F0.003227848101265824
sI19
F0.54310126582278484
sI20
F0.16458860759493668
sI21
F0.0042088607594936728
sI22
F0.0030063291139240515
sI23
F0.0054430379746835443
sI24
F0.0037658227848101273
sI25
F0.0039873417721518999
sI26
F0.0060126582278481021
sI27
F0.0035443037974683548
sI28
F0.0033227848101265835
sI29
F0.0038607594936708864
sI30
F0.0041772151898734197
sI31
F0.0038291139240506332
sI32
F0.0033227848101265835
sI33
F0.0043354430379746846
sI34
F0.14996835443037976
sI35
F0.0046835443037974694
sI36
F0.0035443037974683548
sI37
F0.0044936708860759495
sI38
F0.0036708860759493687
sI39
F0.0034177215189873426
ssI12
(dp13
I0
F0.0063845050215208029
sI1
F0.0055595408895265418
sI2
F0.005344332855093256
sI3
F0.0060975609756097554
sI4
F0.0094691535150645632
sI5
F0.0052367288378766131
sI6
F0.0053084648493543756
sI7
F0.03977761836441894
sI8
F0.0077474892395982793
sI9
F0.0058823529411764696
sI10
F0.0053802008608321373
sI11
F0.0054519368723098989
sI12
F0.0055236728837876605
sI13
F0.0059540889526542313
sI14
F0.0063127690100430412
sI15
F0.0045193687230989949
sI16
F0.0063127690100430412
sI17
F0.0046987087517933995
sI18
F0.0055954088952654222
sI19
F0.009863701578192257
sI20
F0.30552367288378768
sI21
F0.0071736011477761845
sI22
F0.0059540889526542313
sI23
F0.0083931133428981342
sI24
F0.096377331420373025
sI25
F0.0063127690100430412
sI26
F0.0059540889526542313
sI27
F0.0042324246771879483
sI28
F0.0061334289813486358
sI29
F0.0052008608321377327
sI30
F0.028515064562410326
sI31
F0.0052725968436154944
sI32
F0.025322812051649927
sI33
F0.06126255380200861
sI34
F0.22395982783357246
sI35
F0.0048063127690100424
sI36
F0.0058464849354375893
sI37
F0.0060975609756097554
sI38
F0.0074964131994261106
sI39
F0.023744619799139173
ssI13
(dp14
I0
F0.0089673913043478246
sI1
F0.0061820652173913034
sI2
F0.006046195652173912
sI3
F0.006046195652173912
sI4
F0.011820652173913041
sI5
F0.0076086956521739125
sI6
F0.0088994565217391328
sI7
F0.22139945652173915
sI8
F0.0084239130434782608
sI9
F0.0067255434782608689
sI10
F0.0073369565217391297
sI11
F0.0080163043478260858
sI12
F0.0069293478260869564
sI13
F0.015828804347826086
sI14
F0.0086277173913043501
sI15
F0.0058423913043478253
sI16
F0.0078125
sI17
F0.0087635869565217406
sI18
F0.0099184782608695652
sI19
F0.007948369565217394
sI20
F0.0091711956521739139
sI21
F0.0097826086956521747
sI22
F0.0064538043478260861
sI23
F0.10020380434782608
sI24
F0.084782608695652184
sI25
F0.0079483695652173905
sI26
F0.018682065217391301
sI27
F0.0084918478260869561
sI28
F0.0089673913043478264
sI29
F0.010529891304347824
sI30
F0.0093749999999999997
sI31
F0.0069293478260869555
sI32
F0.0075407608695652164
sI33
F0.26535326086956518
sI34
F0.0080842391304347828
sI35
F0.019769021739130435
sI36
F0.0087635869565217371
sI37
F0.011277173913043481
sI38
F0.010258152173913042
sI39
F0.0084918478260869561
ssI14
(dp15
I0
F0.0071547420965058211
sI1
F0.0094009983361064871
sI2
F0.0087354409317803618
sI3
F0.0087354409317803635
sI4
F0.0089850249584026605
sI5
F0.0062396006655574031
sI6
F0.0095673876871880184
sI7
F0.0075707154742096477
sI8
F0.006655574043261228
sI9
F0.0089018302828618931
sI10
F0.0084858569051580682
sI11
F0.0075707154742096494
sI12
F0.0084026622296173008
sI13
F0.0061564059900166375
sI14
F0.0084026622296173008
sI15
F0.0064891846921796992
sI16
F0.006572379367720464
sI17
F0.0072379367720465885
sI18
F0.0083194675540765369
sI19
F0.010565723793677203
sI20
F0.012978369384359398
sI21
F0.0089850249584026605
sI22
F0.0077371048252911773
sI23
F0.012645590682196336
sI24
F0.10257903494176371
sI25
F0.0079034941763727103
sI26
F0.0069051580698835284
sI27
F0.0075707154742096477
sI28
F0.0069051580698835258
sI29
F0.0066555740432612297
sI30
F0.011397670549084858
sI31
F0.0088186356073211292
sI32
F0.010565723793677201
sI33
F0.57221297836938434
sI34
F0.01164725457570715
sI35
F0.011397670549084856
sI36
F0.0067387687188019962
sI37
F0.0072379367720465885
sI38
F0.0082362728785357713
sI39
F0.010732113144758734
ssI15
(dp16
I0
F0.004681818181818182
sI1
F0.0033636363636363638
sI2
F0.0038181818181818187
sI3
F0.0036363636363636364
sI4
F0.0033636363636363638
sI5
F0.0041818181818181806
sI6
F0.0037272727272727271
sI7
F0.0055909090909090908
sI8
F0.0034090909090909094
sI9
F0.0039545454545454554
sI10
F0.004000000000000001
sI11
F0.0044999999999999997
sI12
F0.0047727272727272722
sI13
F0.82845454545454555
sI14
F0.0042272727272727271
sI15
F0.0031363636363636372
sI16
F0.0042727272727272727
sI17
F0.004227272727272728
sI18
F0.0034090909090909081
sI19
F0.0034999999999999996
sI20
F0.0046363636363636364
sI21
F0.0045909090909090917
sI22
F0.0037727272727272726
sI23
F0.0049545454545454554
sI24
F0.0067727272727272749
sI25
F0.0028181818181818178
sI26
F0.0036363636363636364
sI27
F0.0036818181818181819
sI28
F0.0048636363636363634
sI29
F0.0034545454545454554
sI30
F0.0042272727272727271
sI31
F0.0036363636363636355
sI32
F0.0045000000000000014
sI33
F0.0060909090909090913
sI34
F0.0065454545454545461
sI35
F0.012909090909090907
sI36
F0.0032272727272727271
sI37
F0.004454545454545455
sI38
F0.0037272727272727275
sI39
F0.0032727272727272718
ssI16
(dp17
I0
F0.7765322580645162
sI1
F0.005403225806451614
sI2
F0.0042338709677419368
sI3
F0.004758064516129033
sI4
F0.0050806451612903231
sI5
F0.0050806451612903222
sI6
F0.0037499999999999986
sI7
F0.017983870967741934
sI8
F0.0047580645161290321
sI9
F0.0046774193548387117
sI10
F0.005040322580645162
sI11
F0.0048387096774193551
sI12
F0.0058064516129032262
sI13
F0.0053629032258064513
sI14
F0.0052419354838709681
sI15
F0.0087500000000000026
sI16
F0.0041935483870967748
sI17
F0.003830645161290322
sI18
F0.004758064516129033
sI19
F0.0054435483870967751
sI20
F0.0060887096774193544
sI21
F0.0050403225806451629
sI22
F0.0039516129032258068
sI23
F0.011250000000000001
sI24
F0.0052822580645161292
sI25
F0.0043145161290322571
sI26
F0.0058467741935483873
sI27
F0.0036290322580645159
sI28
F0.0051612903225806469
sI29
F0.0052419354838709681
sI30
F0.0062500000000000003
sI31
F0.0057661290322580652
sI32
F0.0034274193548387093
sI33
F0.0071370967741935494
sI34
F0.0062096774193548384
sI35
F0.0055645161290322591
sI36
F0.0071774193548387096
sI37
F0.0066935483870967745
sI38
F0.0057661290322580643
sI39
F0.00467741935483871
ssI17
(dp18
I0
F0.11269771528998243
sI1
F0.0053602811950790854
sI2
F0.0038664323374340962
sI3
F0.0047891036906854119
sI4
F0.0036467486818980675
sI5
F0.0036906854130052736
sI6
F0.0031634446397188058
sI7
F0.003514938488576451
sI8
F0.0028558875219683666
sI9
F0.0050527240773286467
sI10
F0.0045254833040421797
sI11
F0.0032513181019332175
sI12
F0.02240773286467487
sI13
F0.0043057996485061515
sI14
F0.0032952548330404223
sI15
F0.0093585237258347991
sI16
F0.0030755711775043949
sI17
F0.0046572934973637967
sI18
F0.0031634446397188062
sI19
F0.0031195079086116006
sI20
F0.0038664323374340954
sI21
F0.0038224956063268901
sI22
F0.0028998242530755723
sI23
F0.003734622144112478
sI24
F0.0043497363796133563
sI25
F0.0040421792618629184
sI26
F0.0038664323374340954
sI27
F0.004613356766256591
sI28
F0.0034270650263620397
sI29
F0.0040421792618629184
sI30
F0.0050966608084358524
sI31
F0.0037346221441124788
sI32
F0.0049648506151142354
sI33
F0.0033831282952548336
sI34
F0.0043057996485061506
sI35
F0.0033391915641476284
sI36
F0.0032952548330404232
sI37
F0.0051845342706502637
sI38
F0.0038224956063268901
sI39
F0.71441124780316345
ssI18
(dp19
I0
F0.043936381709741554
sI1
F0.011431411530815108
sI2
F0.010039761431411529
sI3
F0.012624254473161031
sI4
F0.0097415506958250485
sI5
F0.012723658051689856
sI6
F0.013320079522862821
sI7
F0.011928429423459241
sI8
F0.017196819085487078
sI9
F0.010934393638170972
sI10
F0.0121272365805169
sI11
F0.012624254473161029
sI12
F0.0091451292246520852
sI13
F0.015208747514910536
sI14
F0.015805168986083497
sI15
F0.010735586481113318
sI16
F0.011530815109343935
sI17
F0.013817097415506957
sI18
F0.011630218687872762
sI19
F0.0095427435387673929
sI20
F0.029125248508946329
sI21
F0.016998011928429417
sI22
F0.010039761431411529
sI23
F0.021669980119284293
sI24
F0.026242544731610341
sI25
F0.012624254473161034
sI26
F0.021172962226640165
sI27
F0.012922465208747513
sI28
F0.0098409542743538754
sI29
F0.010834990059642145
sI30
F0.074453280318091467
sI31
F0.011729622266401589
sI32
F0.015506958250497018
sI33
F0.36153081510934382
sI34
F0.017992047713717697
sI35
F0.0093439363817097408
sI36
F0.01799204771371769
sI37
F0.020576540755467193
sI38
F0.012127236580516895
sI39
F0.011232604373757452
ssI19
(dp20
I0
F0.0093749999999999979
sI1
F0.0086309523809523815
sI2
F0.0081101190476190483
sI3
F0.0084821428571428582
sI4
F0.0080357142857142884
sI5
F0.0092261904761904764
sI6
F0.0084821428571428582
sI7
F0.0085565476190476199
sI8
F0.008333333333333335
sI9
F0.0076636904761904741
sI10
F0.0083333333333333332
sI11
F0.0083333333333333315
sI12
F0.0057291666666666663
sI13
F0.0083333333333333332
sI14
F0.0071428571428571426
sI15
F0.0066964285714285711
sI16
F0.009300595238095238
sI17
F0.0074404761904761901
sI18
F0.0085565476190476199
sI19
F0.0072172619047619043
sI20
F0.014211309523809524
sI21
F0.010714285714285714
sI22
F0.0098958333333333346
sI23
F0.010937499999999999
sI24
F0.053422619047619045
sI25
F0.0088541666666666664
sI26
F0.0066220238095238094
sI27
F0.009821428571428573
sI28
F0.0081845238095238117
sI29
F0.0090029761904761897
sI30
F0.62269345238095242
sI31
F0.0079613095238095215
sI32
F0.007068452380952381
sI33
F0.012500000000000001
sI34
F0.0094494047619047613
sI35
F0.008333333333333335
sI36
F0.0082589285714285733
sI37
F0.0069196428571428577
sI38
F0.0061011904761904762
sI39
F0.0070684523809523793
ssI20
(dp21
I0
F0.0084602368866328239
sI1
F0.0062605752961082924
sI2
F0.0060067681895093067
sI3
F0.0058375634517766487
sI4
F0.0071912013536379006
sI5
F0.0059221658206429799
sI6
F0.0071065989847715729
sI7
F0.012774957698815568
sI8
F0.0059221658206429799
sI9
F0.0073604060913705586
sI10
F0.0062605752961082924
sI11
F0.0062605752961082924
sI12
F0.0057529610829103236
sI13
F0.0068527918781725889
sI14
F0.0059221658206429781
sI15
F0.0093062605752961079
sI16
F0.0062605752961082924
sI17
F0.0075296108291032157
sI18
F0.0052453468697123539
sI19
F0.0080372250423011837
sI20
F0.0087986463620981399
sI21
F0.0071912013536379023
sI22
F0.0070219966159052434
sI23
F0.0095600676818950927
sI24
F0.0066835871404399326
sI25
F0.007021996615905246
sI26
F0.0083756345177664962
sI27
F0.0063451776649746192
sI28
F0.0056683587140439941
sI29
F0.008967851099830797
sI30
F0.0060913705583756344
sI31
F0.0065143824027072746
sI32
F0.0064297800338409487
sI33
F0.0073604060913705568
sI34
F0.72394247038917103
sI35
F0.0055837563451776656
sI36
F0.0075296108291032175
sI37
F0.0063451776649746175
sI38
F0.007529610829103214
sI39
F0.0067681895093062621
ssI21
(dp22
I0
F0.070981012658227843
sI1
F0.0032911392405063299
sI2
F0.0022468354430379752
sI3
F0.0026582278481012663
sI4
F0.0030696202531645574
sI5
F0.0031329113924050641
sI6
F0.0034810126582278493
sI7
F0.0038291139240506332
sI8
F0.0031012658227848114
sI9
F0.0029113924050632916
sI10
F0.0036708860759493691
sI11
F0.0025316455696202536
sI12
F0.0052531645569620262
sI13
F0.002405063291139241
sI14
F0.0023417721518987347
sI15
F0.81139240506329124
sI16
F0.0027215189873417726
sI17
F0.0029113924050632916
sI18
F0.0025316455696202536
sI19
F0.00319620253164557
sI20
F0.0023734177215189878
sI21
F0.0032594936708860772
sI22
F0.0026898734177215194
sI23
F0.0036075949367088628
sI24
F0.0024683544303797473
sI25
F0.00259493670886076
sI26
F0.003987341772151899
sI27
F0.0025632911392405064
sI28
F0.0031962025316455709
sI29
F0.0024367088607594942
sI30
F0.0021835443037974685
sI31
F0.0031962025316455709
sI32
F0.0030696202531645578
sI33
F0.0032594936708860772
sI34
F0.0031012658227848105
sI35
F0.0032278481012658232
sI36
F0.0025000000000000005
sI37
F0.0053797468354430398
sI38
F0.0031962025316455709
sI39
F0.0040506329113924062
ssI22
(dp23
I0
F0.0059493670886075958
sI1
F0.0047151898734177234
sI2
F0.0047468354430379766
sI3
F0.0049683544303797478
sI4
F0.0047151898734177234
sI5
F0.0044936708860759504
sI6
F0.0041455696202531648
sI7
F0.0051898734177215191
sI8
F0.0051582278481012659
sI9
F0.0040506329113924062
sI10
F0.0041139240506329125
sI11
F0.0045253164556962044
sI12
F0.0078797468354430376
sI13
F0.0051582278481012668
sI14
F0.0041772151898734188
sI15
F0.0049367088607594947
sI16
F0.0037974683544303805
sI17
F0.0051898734177215199
sI18
F0.0046518987341772162
sI19
F0.0062974683544303814
sI20
F0.68993670886075942
sI21
F0.0073417721518987357
sI22
F0.0051582278481012659
sI23
F0.0081645569620253169
sI24
F0.0062025316455696219
sI25
F0.0049683544303797487
sI26
F0.011803797468354435
sI27
F0.0049683544303797487
sI28
F0.0042721518987341774
sI29
F0.0043670886075949369
sI30
F0.0073417721518987357
sI31
F0.0039556962025316467
sI32
F0.015158227848101266
sI33
F0.005822784810126584
sI34
F0.097848101265822787
sI35
F0.0039556962025316467
sI36
F0.0049050632911392406
sI37
F0.003512658227848102
sI38
F0.0064240506329113932
sI39
F0.0050316455696202541
ssI23
(dp24
I0
F0.58641509433962258
sI1
F0.0066666666666666662
sI2
F0.0055974842767295592
sI3
F0.0067295597484276727
sI4
F0.0066666666666666662
sI5
F0.0052830188679245278
sI6
F0.0055974842767295592
sI7
F0.0066666666666666662
sI8
F0.0067924528301886791
sI9
F0.006226415094339622
sI10
F0.0055974842767295592
sI11
F0.0057861635220125777
sI12
F0.035911949685534586
sI13
F0.0071069182389937105
sI14
F0.0058490566037735841
sI15
F0.0060377358490566035
sI16
F0.0060377358490566035
sI17
F0.0061006289308176091
sI18
F0.0056603773584905656
sI19
F0.0060377358490566035
sI20
F0.011446540880503144
sI21
F0.0069811320754716976
sI22
F0.0061635220125786155
sI23
F0.0099999999999999985
sI24
F0.0096855345911949671
sI25
F0.0059119496855345906
sI26
F0.0074213836477987419
sI27
F0.0052201257861635214
sI28
F0.0059119496855345906
sI29
F0.0066037735849056606
sI30
F0.016037735849056604
sI31
F0.0053459119496855343
sI32
F0.0120125786163522
sI33
F0.1060377358490566
sI34
F0.0084905660377358489
sI35
F0.0088050314465408803
sI36
F0.0083018867924528304
sI37
F0.013270440251572327
sI38
F0.006918238993710692
sI39
F0.0066666666666666662
ssI24
(dp25
I0
F0.0078544061302681968
sI1
F0.005108556832694764
sI2
F0.0056194125159642399
sI3
F0.0067688378033205626
sI4
F0.013154533844189017
sI5
F0.0059386973180076625
sI6
F0.0065134099616858234
sI7
F0.010727969348659005
sI8
F0.0053639846743295016
sI9
F0.0049808429118773949
sI10
F0.0073435504469987227
sI11
F0.0081736909323116246
sI12
F0.0058748403575989783
sI13
F0.0093869731800766288
sI14
F0.0053001277139208191
sI15
F0.0068965517241379292
sI16
F0.0050446998722860781
sI17
F0.0054278416347381857
sI18
F0.0055555555555555558
sI19
F0.006257982120051085
sI20
F0.01743295019157088
sI21
F0.0055555555555555549
sI22
F0.00574712643678161
sI23
F0.012068965517241379
sI24
F0.015581098339719032
sI25
F0.0060025542784163475
sI26
F0.007471264367816091
sI27
F0.0045338441890166014
sI28
F0.005108556832694764
sI29
F0.0056194125159642399
sI30
F0.014559386973180077
sI31
F0.0066411238825031926
sI32
F0.70076628352490433
sI33
F0.0086845466155810996
sI34
F0.014942528735632182
sI35
F0.0065134099616858242
sI36
F0.0052362707535121324
sI37
F0.0077905491698595135
sI38
F0.0065772669220945084
sI39
F0.0058748403575989783
ssI25
(dp26
I0
F0.0056902002107481562
sI1
F0.010168598524762909
sI2
F0.0057428872497365668
sI3
F0.005795574288724974
sI4
F0.013066385669125397
sI5
F0.0052160168598524778
sI6
F0.0090094836670179135
sI7
F0.017228661749209694
sI8
F0.0067966280295047431
sI9
F0.0079557428872497372
sI10
F0.0078503688092729177
sI11
F0.0056375131717597482
sI12
F0.006217070600632247
sI13
F0.010432033719704952
sI14
F0.0063751317175974719
sI15
F0.0048998946259220227
sI16
F0.0048472075869336146
sI17
F0.0073234984193888322
sI18
F0.0061116965226554283
sI19
F0.011275026343519495
sI20
F0.063277133825079032
sI21
F0.0071654373024236055
sI22
F0.0069546891464699664
sI23
F0.010221285563751315
sI24
F0.57534246575342451
sI25
F0.0060590094836670185
sI26
F0.016596417281348787
sI27
F0.0073761854583772411
sI28
F0.0062697576396206541
sI29
F0.0067966280295047423
sI30
F0.04293993677555321
sI31
F0.0067439409905163325
sI32
F0.0082718651211801907
sI33
F0.0089041095890410975
sI34
F0.03145416227608009
sI35
F0.0098524762908324542
sI36
F0.0066912539515279253
sI37
F0.0092729188619599563
sI38
F0.0066385669125395164
sI39
F0.0055321390937829295
ssI26
(dp27
I0
F0.0059578368469294226
sI1
F0.0087076076993583863
sI2
F0.0065077910174152166
sI3
F0.0084326306141154911
sI4
F0.011090742438130154
sI5
F0.0098991750687442703
sI6
F0.0075160403299725023
sI7
F0.011090742438130153
sI8
F0.0062786434463794685
sI9
F0.0065077910174152157
sI10
F0.0060494958753437213
sI11
F0.0076993583868010989
sI12
F0.00614115490375802
sI13
F0.00614115490375802
sI14
F0.0074243813015582028
sI15
F0.004949587534372136
sI16
F0.0094408799266727777
sI17
F0.0078368469294225491
sI18
F0.0081576535288725924
sI19
F0.010632447296058662
sI20
F0.15032080659945005
sI21
F0.0081118240146654443
sI22
F0.008570119156736937
sI23
F0.017186067827681027
sI24
F0.073189734188817607
sI25
F0.0083409715857011898
sI26
F0.0099908340971585699
sI27
F0.0069202566452795586
sI28
F0.0088909257561869855
sI29
F0.0072868927589367569
sI30
F0.075985334555453726
sI31
F0.0078826764436296954
sI32
F0.0058203483043079733
sI33
F0.40242896425297892
sI34
F0.017231897341888174
sI35
F0.005591200733272227
sI36
F0.0080659945004582928
sI37
F0.0090284142988084331
sI38
F0.0062328139321723205
sI39
F0.0064619615032080659
ssI27
(dp28
I0
F0.0040822784810126593
sI1
F0.0033227848101265826
sI2
F0.0034810126582278493
sI3
F0.0032594936708860768
sI4
F0.0034810126582278493
sI5
F0.0025632911392405059
sI6
F0.0031329113924050641
sI7
F0.0043354430379746846
sI8
F0.0029113924050632916
sI9
F0.0038924050632911404
sI10
F0.0025000000000000005
sI11
F0.0039873417721519016
sI12
F0.0038291139240506332
sI13
F0.0038924050632911399
sI14
F0.0048417721518987352
sI15
F0.0042721518987341774
sI16
F0.0037658227848101277
sI17
F0.0029746835443037979
sI18
F0.0031962025316455713
sI19
F0.003481012658227848
sI20
F0.0038607594936708864
sI21
F0.004841772151898736
sI22
F0.0029430379746835447
sI23
F0.0049050632911392406
sI24
F0.0041455696202531648
sI25
F0.0029113924050632916
sI26
F0.0041772151898734188
sI27
F0.0029430379746835452
sI28
F0.0037025316455696206
sI29
F0.0034493670886075961
sI30
F0.0034810126582278493
sI31
F0.0034493670886075966
sI32
F0.0045253164556962027
sI33
F0.0044303797468354441
sI34
F0.0066455696202531635
sI35
F0.0028797468354430384
sI36
F0.0031645569620253173
sI37
F0.0038291139240506341
sI38
F0.85446202531645576
sI39
F0.004050632911392407
ssI28
(dp29
I0
F0.004556962025316455
sI1
F0.0041139240506329125
sI2
F0.0034177215189873434
sI3
F0.0034493670886075953
sI4
F0.0052215189873417722
sI5
F0.0036075949367088619
sI6
F0.0036708860759493678
sI7
F0.74363924050632901
sI8
F0.0041455696202531648
sI9
F0.004240506329113926
sI10
F0.0035759493670886079
sI11
F0.0033860759493670898
sI12
F0.0038291139240506341
sI13
F0.0059177215189873426
sI14
F0.0030696202531645574
sI15
F0.0031329113924050641
sI16
F0.0028797468354430393
sI17
F0.0035759493670886088
sI18
F0.0032911392405063299
sI19
F0.0034177215189873426
sI20
F0.015000000000000003
sI21
F0.0046202531645569631
sI22
F0.003987341772151899
sI23
F0.0051898734177215199
sI24
F0.072753164556962027
sI25
F0.0035443037974683552
sI26
F0.0056012658227848119
sI27
F0.0032911392405063299
sI28
F0.0039873417721519007
sI29
F0.0032278481012658232
sI30
F0.0048417721518987352
sI31
F0.0032594936708860768
sI32
F0.0044303797468354441
sI33
F0.005411392405063292
sI34
F0.021012658227848105
sI35
F0.004430379746835445
sI36
F0.0040506329113924062
sI37
F0.0046202531645569622
sI38
F0.0049683544303797478
sI39
F0.0056329113924050642
ssI29
(dp30
I0
F0.87142405063291117
sI1
F0.0025632911392405068
sI2
F0.002215189873417722
sI3
F0.0023734177215189878
sI4
F0.0029746835443037979
sI5
F0.0053481012658227866
sI6
F0.0033227848101265835
sI7
F0.0036075949367088619
sI8
F0.0029746835443037983
sI9
F0.0025632911392405064
sI10
F0.0033227848101265835
sI11
F0.0033860759493670894
sI12
F0.0070569620253164555
sI13
F0.003227848101265824
sI14
F0.0028164556962025325
sI15
F0.0038291139240506345
sI16
F0.002405063291139241
sI17
F0.0031329113924050645
sI18
F0.0033227848101265839
sI19
F0.002911392405063292
sI20
F0.0038607594936708872
sI21
F0.0031329113924050641
sI22
F0.0037341772151898754
sI23
F0.0028164556962025321
sI24
F0.0031329113924050641
sI25
F0.0028481012658227852
sI26
F0.0029113924050632916
sI27
F0.0032594936708860768
sI28
F0.0023101265822784815
sI29
F0.0030696202531645578
sI30
F0.0025316455696202536
sI31
F0.0027848101265822789
sI32
F0.0060126582278481021
sI33
F0.0028797468354430393
sI34
F0.0040189873417721522
sI35
F0.0023101265822784815
sI36
F0.0031645569620253173
sI37
F0.0037658227848101286
sI38
F0.0032278481012658232
sI39
F0.0034493670886075961
ssI30
(dp31
I0
F0.014473684210526316
sI1
F0.0078947368421052634
sI2
F0.0082894736842105254
sI3
F0.0074342105263157888
sI4
F0.017105263157894735
sI5
F0.0088157894736842109
sI6
F0.0080921052631578953
sI7
F0.012828947368421054
sI8
F0.010065789473684212
sI9
F0.0084210526315789472
sI10
F0.0090789473684210528
sI11
F0.0090131578947368392
sI12
F0.006644736842105264
sI13
F0.013026315789473683
sI14
F0.0076315789473684215
sI15
F0.0076973684210526307
sI16
F0.0089473684210526309
sI17
F0.0079605263157894752
sI18
F0.0074342105263157906
sI19
F0.0069736842105263168
sI20
F0.023289473684210527
sI21
F0.30230263157894738
sI22
F0.008552631578947369
sI23
F0.042631578947368423
sI24
F0.11414473684210527
sI25
F0.010723684210526316
sI26
F0.0097368421052631583
sI27
F0.0071710526315789478
sI28
F0.0096052631578947348
sI29
F0.0080263157894736835
sI30
F0.13374999999999998
sI31
F0.0090131578947368427
sI32
F0.011710526315789473
sI33
F0.05907894736842105
sI34
F0.0093421052631578964
sI35
F0.012894736842105268
sI36
F0.012960526315789473
sI37
F0.011513157894736845
sI38
F0.0064473684210526305
sI39
F0.0092763157894736846
ssI31
(dp32
I0
F0.0035046728971962612
sI1
F0.0042723631508678247
sI2
F0.0050400534045393873
sI3
F0.0039719626168224298
sI4
F0.0040387182910547404
sI5
F0.0044058744993324432
sI6
F0.004205607476635515
sI7
F0.006475300400534045
sI8
F0.0039385847797062754
sI9
F0.0035046728971962621
sI10
F0.0039052069425901206
sI11
F0.0047730307076101477
sI12
F0.0036715620827770363
sI13
F0.0037383177570093468
sI14
F0.0033377837116154883
sI15
F0.0029372496662216289
sI16
F0.0042723631508678238
sI17
F0.0043724966622162888
sI18
F0.0043724966622162888
sI19
F0.0038718291054739644
sI20
F0.011915887850467294
sI21
F0.0039052069425901206
sI22
F0.0036381842456608819
sI23
F0.0058411214953271026
sI24
F0.062716955941255009
sI25
F0.0041054739652870492
sI26
F0.0046728971962616819
sI27
F0.005273698264352469
sI28
F0.0052403204272363146
sI29
F0.0046395193591455275
sI30
F0.75677570093457935
sI31
F0.0045393858477970625
sI32
F0.0047062750333778372
sI33
F0.011949265687583447
sI34
F0.0038050734312416552
sI35
F0.0062416555407209624
sI36
F0.0054405874499332445
sI37
F0.0037716955941255008
sI38
F0.0032376502002670242
sI39
F0.0049732977303070759
ssI32
(dp33
I0
F0.0046372819100091818
sI1
F0.0049586776859504118
sI2
F0.0047750229568411387
sI3
F0.0056932966023875127
sI4
F0.0052800734618916427
sI5
F0.0045454545454545461
sI6
F0.0061065197428833793
sI7
F0.0061983471074380167
sI8
F0.0062901744719926541
sI9
F0.0052341597796143249
sI10
F0.0037649219467401295
sI11
F0.0046372819100091826
sI12
F0.0034435261707988982
sI13
F0.0055555555555555566
sI14
F0.00472910927456382
sI15
F0.0038108356290174469
sI16
F0.00408631772268136
sI17
F0.0049127640036730948
sI18
F0.0048668503213957753
sI19
F0.0054178145087235988
sI20
F0.0043617998163452704
sI21
F0.0036730945821854912
sI22
F0.0040863177226813591
sI23
F0.0057851239669421493
sI24
F0.80491276400367318
sI25
F0.003856749311294766
sI26
F0.00440771349862259
sI27
F0.0055555555555555566
sI28
F0.0050505050505050518
sI29
F0.0044536271808999096
sI30
F0.0063360881542699728
sI31
F0.0044995408631772274
sI32
F0.0056014692378328727
sI33
F0.0087235996326905443
sI34
F0.0043617998163452713
sI35
F0.0057392102846648297
sI36
F0.0047750229568411387
sI37
F0.006152433425160698
sI38
F0.0050964187327823679
sI39
F0.0036271808999081721
ssI33
(dp34
I0
F0.27762711864406786
sI1
F0.0035169491525423738
sI2
F0.0030932203389830515
sI3
F0.0047457627118644083
sI4
F0.0044491525423728823
sI5
F0.0031779661016949163
sI6
F0.0042796610169491536
sI7
F0.0042796610169491536
sI8
F0.0041101694915254257
sI9
F0.00402542372881356
sI10
F0.0033474576271186455
sI11
F0.003093220338983052
sI12
F0.0065254237288135623
sI13
F0.003728813559322035
sI14
F0.00402542372881356
sI15
F0.0054661016949152557
sI16
F0.0038135593220338993
sI17
F0.0029661016949152552
sI18
F0.0047457627118644083
sI19
F0.00402542372881356
sI20
F0.0040677966101694924
sI21
F0.0040677966101694924
sI22
F0.0036016949152542382
sI23
F0.0046186440677966111
sI24
F0.0041949152542372897
sI25
F0.0033050847457627127
sI26
F0.0039830508474576285
sI27
F0.0047881355932203407
sI28
F0.003644067796610171
sI29
F0.0037711864406779669
sI30
F0.0046186440677966119
sI31
F0.0031779661016949163
sI32
F0.004322033898305086
sI33
F0.0055508474576271196
sI34
F0.0042796610169491545
sI35
F0.0038135593220338993
sI36
F0.003093220338983052
sI37
F0.567415254237288
sI38
F0.004915254237288137
sI39
F0.003728813559322035
ssI34
(dp35
I0
F0.0075639599555061181
sI1
F0.0056729699666295871
sI2
F0.005339265850945493
sI3
F0.0055061179087875414
sI4
F0.47925472747497222
sI5
F0.0055617352614015566
sI6
F0.0062291434927697429
sI7
F0.0095105672969966609
sI8
F0.0062847608453837581
sI9
F0.0053392658509454939
sI10
F0.0061179087875417107
sI11
F0.0057842046718576184
sI12
F0.0051167964404894312
sI13
F0.0080645161290322544
sI14
F0.0060066740823136802
sI15
F0.0052836484983314778
sI16
F0.0055061179087875414
sI17
F0.0078420467185761917
sI18
F0.0063959955506117886
sI19
F0.0070077864293659597
sI20
F0.023859844271412675
sI21
F0.0076751946607341495
sI22
F0.0045050055617352602
sI23
F0.0079532814238042256
sI24
F0.12363737486095661
sI25
F0.0060066740823136811
sI26
F0.0081201334816462731
sI27
F0.0067853170189099005
sI28
F0.0065072302558398217
sI29
F0.0060622914349276963
sI30
F0.011457174638487206
sI31
F0.0072302558398220241
sI32
F0.0066184649610678522
sI33
F0.13720800889877643
sI34
F0.008398220244716351
sI35
F0.0063959955506117912
sI36
F0.0057285873192436023
sI37
F0.0058954393770856489
sI38
F0.0055061179087875405
sI39
F0.005061179087875416
ssI35
(dp36
I0
F0.0048101265822784811
sI1
F0.0042721518987341792
sI2
F0.0032594936708860759
sI3
F0.0035443037974683561
sI4
F0.0042721518987341783
sI5
F0.0038291139240506341
sI6
F0.0036708860759493678
sI7
F0.0050632911392405073
sI8
F0.0034493670886075953
sI9
F0.0032911392405063308
sI10
F0.0041139240506329125
sI11
F0.0037025316455696214
sI12
F0.0047151898734177217
sI13
F0.0032594936708860781
sI14
F0.0038291139240506332
sI15
F0.0038607594936708859
sI16
F0.0034177215189873426
sI17
F0.002721518987341773
sI18
F0.0038924050632911404
sI19
F0.0058860759493670903
sI20
F0.24303797468354432
sI21
F0.0040506329113924053
sI22
F0.0033544303797468367
sI23
F0.0051265822784810145
sI24
F0.0040189873417721522
sI25
F0.0036708860759493691
sI26
F0.013892405063291138
sI27
F0.0037341772151898746
sI28
F0.0040189873417721522
sI29
F0.0039556962025316484
sI30
F0.0051582278481012659
sI31
F0.0041139240506329125
sI32
F0.0032594936708860768
sI33
F0.003512658227848102
sI34
F0.59965189873417724
sI35
F0.0030063291139240519
sI36
F0.0033544303797468367
sI37
F0.0036075949367088619
sI38
F0.0033544303797468358
sI39
F0.0032594936708860768
ssI36
(dp37
I0
F0.0067272727272727276
sI1
F0.0041090909090909077
sI2
F0.0060000000000000001
sI3
F0.0058545454545454543
sI4
F0.0064363636363636359
sI5
F0.0060363636363636366
sI6
F0.0063999999999999986
sI7
F0.0087636363636363641
sI8
F0.0050181818181818192
sI9
F0.006072727272727273
sI10
F0.0061090909090909095
sI11
F0.0045454545454545452
sI12
F0.003345454545454546
sI13
F0.0052727272727272727
sI14
F0.0047272727272727275
sI15
F0.0049454545454545445
sI16
F0.003490909090909091
sI17
F0.0055999999999999991
sI18
F0.0055636363636363644
sI19
F0.0092363636363636363
sI20
F0.065854545454545471
sI21
F0.0059272727272727255
sI22
F0.0051272727272727268
sI23
F0.56934545454545449
sI24
F0.010800000000000001
sI25
F0.0054181818181818185
sI26
F0.0068000000000000005
sI27
F0.0056363636363636347
sI28
F0.0047272727272727275
sI29
F0.0061818181818181807
sI30
F0.011963636363636366
sI31
F0.006145454545454546
sI32
F0.0064727272727272741
sI33
F0.026327272727272734
sI34
F0.11923636363636363
sI35
F0.0052363636363636362
sI36
F0.0075636363636363644
sI37
F0.0062909090909090901
sI38
F0.0062545454545454545
sI39
F0.0044363636363636359
ssI37
(dp38
I0
F0.71379310344827585
sI1
F0.0064039408866995075
sI2
F0.005972906403940886
sI3
F0.0054187192118226599
sI4
F0.006342364532019704
sI5
F0.0069581280788177354
sI6
F0.0059113300492610842
sI7
F0.0064039408866995093
sI8
F0.0066502463054187184
sI9
F0.005665024630541869
sI10
F0.0059113300492610824
sI11
F0.006157635467980295
sI12
F0.00714285714285714
sI13
F0.0060344827586206896
sI14
F0.0066502463054187166
sI15
F0.0084975369458128048
sI16
F0.0064039408866995075
sI17
F0.006157635467980295
sI18
F0.005603448275862068
sI19
F0.0071428571428571409
sI20
F0.010899014778325122
sI21
F0.0078817733990147777
sI22
F0.0059729064039408869
sI23
F0.016995073891625613
sI24
F0.010283251231527093
sI25
F0.006465517241379312
sI26
F0.0062807881773399021
sI27
F0.0064655172413793094
sI28
F0.0061576354679802941
sI29
F0.0072660098522167472
sI30
F0.0064655172413793111
sI31
F0.00523399014778325
sI32
F0.0077586206896551697
sI33
F0.011761083743842363
sI34
F0.01336206896551724
sI35
F0.0046798029556650231
sI36
F0.0083743842364532011
sI37
F0.0104679802955665
sI38
F0.0056034482758620689
sI39
F0.0064039408866995075
ssI38
(dp39
I0
F0.0041139240506329134
sI1
F0.0034493670886075961
sI2
F0.0035443037974683548
sI3
F0.0037658227848101273
sI4
F0.0058860759493670886
sI5
F0.0034493670886075961
sI6
F0.0037341772151898737
sI7
F0.0044936708860759504
sI8
F0.0046518987341772162
sI9
F0.0039240506329113935
sI10
F0.003987341772151899
sI11
F0.0037658227848101273
sI12
F0.0037658227848101277
sI13
F0.0046202531645569631
sI14
F0.0035759493670886088
sI15
F0.0035759493670886079
sI16
F0.0036392405063291138
sI17
F0.0033227848101265835
sI18
F0.0037025316455696227
sI19
F0.0050316455696202541
sI20
F0.0041139240506329108
sI21
F0.0044303797468354441
sI22
F0.0045569620253164567
sI23
F0.006613924050632913
sI24
F0.038259493670886081
sI25
F0.0036708860759493678
sI26
F0.0075949367088607609
sI27
F0.0032911392405063299
sI28
F0.0038291139240506341
sI29
F0.0031012658227848105
sI30
F0.0050632911392405073
sI31
F0.0028797468354430388
sI32
F0.0043037974683544315
sI33
F0.0056962025316455696
sI34
F0.79952531645569613
sI35
F0.0068354430379746825
sI36
F0.0042405063291139269
sI37
F0.0035126582278481025
sI38
F0.0046835443037974694
sI39
F0.0037974683544303805
ssI39
(dp40
I0
F0.0042272126816380448
sI1
F0.0055482166446499332
sI2
F0.0048216644649933952
sI3
F0.0034346103038309117
sI4
F0.0057463672391017172
sI5
F0.004623513870541612
sI6
F0.0052179656538969615
sI7
F0.011492734478203433
sI8
F0.005614266842800527
sI9
F0.0049537648612945837
sI10
F0.0054161162483487429
sI11
F0.0052179656538969615
sI12
F0.0038969616908850731
sI13
F0.0044253632760898279
sI14
F0.0048877146631439898
sI15
F0.0048216644649933934
sI16
F0.0046895640686922058
sI17
F0.0040290620871862616
sI18
F0.0049537648612945837
sI19
F0.0057463672391017163
sI20
F0.013474240422721268
sI21
F0.0054161162483487447
sI22
F0.0044914134742404209
sI23
F0.0068692206076618233
sI24
F0.0044914134742404226
sI25
F0.0050858652575957721
sI26
F0.0057463672391017163
sI27
F0.0048877146631439881
sI28
F0.0050858652575957704
sI29
F0.0060766182298546889
sI30
F0.0061426684280052836
sI31
F0.0059445178335535004
sI32
F0.0078599735799207392
sI33
F0.0060766182298546889
sI34
F0.78157199471598426
sI35
F0.0047556142668428005
sI36
F0.00535006605019815
sI37
F0.0042932628797886386
sI38
F0.0059445178335534987
sI39
F0.0066710700132100384
ssI40
(dp41
I0
F0.0025000000000000009
sI1
F0.0019303797468354432
sI2
F0.0038607594936708872
sI3
F0.0024683544303797473
sI4
F0.0021518987341772153
sI5
F0.0023734177215189878
sI6
F0.00259493670886076
sI7
F0.0030696202531645582
sI8
F0.002215189873417722
sI9
F0.0036708860759493691
sI10
F0.0029746835443037979
sI11
F0.0026898734177215194
sI12
F0.0031012658227848105
sI13
F0.0044936708860759513
sI14
F0.0018037974683544305
sI15
F0.0026265822784810136
sI16
F0.0024367088607594946
sI17
F0.0023734177215189874
sI18
F0.003101265822784811
sI19
F0.0024367088607594933
sI20
F0.0022468354430379752
sI21
F0.0019303797468354432
sI22
F0.0022468354430379748
sI23
F0.0031962025316455709
sI24
F0.0029430379746835452
sI25
F0.0033860759493670898
sI26
F0.0038291139240506345
sI27
F0.0023734177215189874
sI28
F0.0029113924050632916
sI29
F0.0022784810126582284
sI30
F0.0044303797468354441
sI31
F0.0021835443037974689
sI32
F0.0028164556962025325
sI33
F0.0029746835443037983
sI34
F0.0024683544303797469
sI35
F0.88939873417721493
sI36
F0.0037025316455696227
sI37
F0.0036075949367088632
sI38
F0.0028797468354430388
sI39
F0.0033227848101265835
ssI41
(dp42
I0
F0.0038607594936708881
sI1
F0.0027531645569620262
sI2
F0.0030379746835443051
sI3
F0.0040189873417721539
sI4
F0.0024683544303797473
sI5
F0.00259493670886076
sI6
F0.0037974683544303805
sI7
F0.0033860759493670907
sI8
F0.0038291139240506341
sI9
F0.0034177215189873426
sI10
F0.0029746835443037987
sI11
F0.0038607594936708872
sI12
F0.006772151898734177
sI13
F0.0035759493670886092
sI14
F0.0026265822784810127
sI15
F0.0027848101265822798
sI16
F0.0034493670886075966
sI17
F0.0031962025316455709
sI18
F0.0026265822784810127
sI19
F0.0038607594936708864
sI20
F0.0048734177215189883
sI21
F0.0036708860759493687
sI22
F0.0027848101265822789
sI23
F0.0036708860759493674
sI24
F0.0053797468354430389
sI25
F0.0034493670886075961
sI26
F0.0039240506329113944
sI27
F0.0036392405063291138
sI28
F0.0025316455696202536
sI29
F0.0035759493670886079
sI30
F0.0038607594936708872
sI31
F0.0030379746835443042
sI32
F0.8567088607594936
sI33
F0.0050316455696202533
sI34
F0.0046835443037974702
sI35
F0.0041139240506329125
sI36
F0.0024367088607594942
sI37
F0.0034493670886075966
sI38
F0.0041772151898734188
sI39
F0.0061075949367088616
ssI42
(dp43
I0
F0.0068354430379746842
sI1
F0.0068670886075949374
sI2
F0.0042088607594936711
sI3
F0.0056329113924050633
sI4
F0.0074050632911392428
sI5
F0.0054746835443037975
sI6
F0.0061075949367088616
sI7
F0.033069620253164546
sI8
F0.0093987341772151893
sI9
F0.0054430379746835452
sI10
F0.0057594936708860777
sI11
F0.006170886075949367
sI12
F0.0060126582278481012
sI13
F0.0064873417721519003
sI14
F0.0053164556962025326
sI15
F0.00579113924050633
sI16
F0.0074683544303797509
sI17
F0.0052531645569620262
sI18
F0.0071202531645569609
sI19
F0.007373417721518988
sI20
F0.18566455696202527
sI21
F0.0095253164556962002
sI22
F0.0051582278481012659
sI23
F0.025632911392405068
sI24
F0.011835443037974683
sI25
F0.0056329113924050633
sI26
F0.0073417721518987348
sI27
F0.0057278481012658228
sI28
F0.0050000000000000001
sI29
F0.0068037974683544319
sI30
F0.32506329113924043
sI31
F0.0057911392405063317
sI32
F0.17053797468354431
sI33
F0.018607594936708858
sI34
F0.018892405063291144
sI35
F0.0053164556962025326
sI36
F0.0076898734177215213
sI37
F0.0059493670886075958
sI38
F0.0062974683544303814
sI39
F0.014335443037974682
ssI43
(dp44
I0
F0.0048417721518987352
sI1
F0.0045886075949367108
sI2
F0.0038924050632911399
sI3
F0.0033860759493670894
sI4
F0.0053164556962025326
sI5
F0.0044936708860759504
sI6
F0.0037341772151898733
sI7
F0.0043037974683544315
sI8
F0.0034810126582278484
sI9
F0.0038924050632911404
sI10
F0.0030379746835443046
sI11
F0.0043670886075949378
sI12
F0.0027848101265822789
sI13
F0.0037025316455696214
sI14
F0.0036708860759493678
sI15
F0.0040189873417721522
sI16
F0.0031645569620253173
sI17
F0.0034810126582278484
sI18
F0.0032911392405063299
sI19
F0.0051582278481012668
sI20
F0.43889240506329125
sI21
F0.0043037974683544315
sI22
F0.0035759493670886079
sI23
F0.0059810126582278498
sI24
F0.004778481012658228
sI25
F0.0043987341772151909
sI26
F0.007183544303797469
sI27
F0.0047468354430379766
sI28
F0.0043670886075949378
sI29
F0.0037974683544303818
sI30
F0.0041139240506329125
sI31
F0.004430379746835445
sI32
F0.003987341772151899
sI33
F0.0041139240506329116
sI34
F0.40509493670886076
sI35
F0.0034810126582278493
sI36
F0.0037341772151898746
sI37
F0.0032911392405063308
sI38
F0.0039556962025316458
sI39
F0.0031645569620253173
ssI44
(dp45
I0
F0.0055379746835443038
sI1
F0.0034493670886075961
sI2
F0.0032911392405063299
sI3
F0.0030696202531645578
sI4
F0.0030063291139240515
sI5
F0.0031329113924050641
sI6
F0.002721518987341773
sI7
F0.0033860759493670898
sI8
F0.0029746835443037974
sI9
F0.0032911392405063308
sI10
F0.0026582278481012667
sI11
F0.0027215189873417726
sI12
F0.003101265822784811
sI13
F0.0044936708860759495
sI14
F0.0025316455696202536
sI15
F0.0035443037974683552
sI16
F0.002215189873417722
sI17
F0.0029113924050632916
sI18
F0.0028164556962025325
sI19
F0.0042721518987341792
sI20
F0.0094620253164556974
sI21
F0.003512658227848102
sI22
F0.0031645569620253173
sI23
F0.0038291139240506341
sI24
F0.0031962025316455709
sI25
F0.0026265822784810136
sI26
F0.0033860759493670885
sI27
F0.0034493670886075966
sI28
F0.0036708860759493687
sI29
F0.0037025316455696214
sI30
F0.0033860759493670898
sI31
F0.0031012658227848105
sI32
F0.0039556962025316476
sI33
F0.0037974683544303818
sI34
F0.86341772151898721
sI35
F0.0037974683544303805
sI36
F0.0033544303797468358
sI37
F0.0035126582278481025
sI38
F0.0043037974683544315
sI39
F0.0022468354430379748
ssI45
(dp46
I0
F0.010031645569620256
sI1
F0.0046518987341772153
sI2
F0.0036075949367088611
sI3
F0.0036708860759493678
sI4
F0.0072784810126582293
sI5
F0.0042721518987341792
sI6
F0.0033544303797468358
sI7
F0.0057911392405063291
sI8
F0.13503164556962027
sI9
F0.0040506329113924062
sI10
F0.0049367088607594955
sI11
F0.0032594936708860759
sI12
F0.0060759493670886084
sI13
F0.0046202531645569639
sI14
F0.0047468354430379766
sI15
F0.0037974683544303805
sI16
F0.0043987341772151901
sI17
F0.0037658227848101273
sI18
F0.0045253164556962036
sI19
F0.0052215189873417731
sI20
F0.49917721518987335
sI21
F0.0061392405063291139
sI22
F0.0045569620253164567
sI23
F0.0057594936708860777
sI24
F0.011930379746835444
sI25
F0.0050000000000000001
sI26
F0.017658227848101265
sI27
F0.0040189873417721522
sI28
F0.0039556962025316458
sI29
F0.0032594936708860768
sI30
F0.0073417721518987348
sI31
F0.0033544303797468358
sI32
F0.0099050632911392416
sI33
F0.0043354430379746855
sI34
F0.16405063291139238
sI35
F0.0050949367088607613
sI36
F0.0046202531645569613
sI37
F0.0045569620253164567
sI38
F0.0043354430379746846
sI39
F0.0038607594936708872
ssI46
(dp47
I0
F0.0037341772151898754
sI1
F0.0042721518987341774
sI2
F0.0041772151898734188
sI3
F0.0036392405063291138
sI4
F0.0049683544303797487
sI5
F0.0038291139240506323
sI6
F0.0040189873417721539
sI7
F0.0038607594936708881
sI8
F0.0040822784810126602
sI9
F0.0037974683544303813
sI10
F0.0039556962025316467
sI11
F0.0031645569620253173
sI12
F0.0035126582278481025
sI13
F0.0040506329113924062
sI14
F0.0041139240506329125
sI15
F0.0045569620253164567
sI16
F0.0038607594936708872
sI17
F0.0044303797468354441
sI18
F0.0044620253164556981
sI19
F0.0092721518987341801
sI20
F0.80212025316455671
sI21
F0.0045253164556962027
sI22
F0.0038607594936708872
sI23
F0.0074367088607594943
sI24
F0.0057278481012658219
sI25
F0.0049050632911392424
sI26
F0.010189873417721521
sI27
F0.0033860759493670898
sI28
F0.0041772151898734188
sI29
F0.0033544303797468358
sI30
F0.0093670886075949387
sI31
F0.0030379746835443042
sI32
F0.0034177215189873426
sI33
F0.0074367088607594943
sI34
F0.022974683544303799
sI35
F0.0043987341772151901
sI36
F0.0033860759493670885
sI37
F0.0034493670886075961
sI38
F0.0041139240506329108
sI39
F0.0029746835443037983
ssI47
(dp48
I0
F0.0060913705583756353
sI1
F0.0053299492385786799
sI2
F0.0044416243654822347
sI3
F0.0057106598984771571
sI4
F0.41747038917089679
sI5
F0.0046531302876480548
sI6
F0.0049915397631133673
sI7
F0.009517766497461928
sI8
F0.005076142131979695
sI9
F0.0054568527918781714
sI10
F0.0036802030456852784
sI11
F0.0043570219966159061
sI12
F0.0054991539763113361
sI13
F0.0061759729272419621
sI14
F0.0039340101522842641
sI15
F0.003976311336717428
sI16
F0.0050338409475465303
sI17
F0.0048223350253807102
sI18
F0.0050338409475465303
sI19
F0.007698815566835872
sI20
F0.039847715736040602
sI21
F0.0061336717428087982
sI22
F0.0054145516074450093
sI23
F0.015651438240270727
sI24
F0.19648900169204736
sI25
F0.0045685279187817262
sI26
F0.018358714043993231
sI27
F0.005076142131979695
sI28
F0.0054991539763113361
sI29
F0.0047377326565143816
sI30
F0.013874788494077833
sI31
F0.0036802030456852776
sI32
F0.010067681895093061
sI33
F0.022715736040609141
sI34
F0.092554991539763126
sI35
F0.0070219966159052443
sI36
F0.0066835871404399326
sI37
F0.0081641285956006761
sI38
F0.0082487309644670055
sI39
F0.0062605752961082907
ssI48
(dp49
I0
F0.027689873417721517
sI1
F0.0030379746835443046
sI2
F0.0034493670886075974
sI3
F0.0033544303797468367
sI4
F0.0019936708860759495
sI5
F0.0034177215189873426
sI6
F0.0034493670886075961
sI7
F0.0028797468354430388
sI8
F0.0032594936708860759
sI9
F0.0023101265822784815
sI10
F0.0020569620253164558
sI11
F0.0031329113924050641
sI12
F0.85506329113924051
sI13
F0.0040189873417721539
sI14
F0.0022784810126582284
sI15
F0.0040822784810126593
sI16
F0.0026582278481012663
sI17
F0.0023734177215189883
sI18
F0.0027215189873417722
sI19
F0.0028797468354430393
sI20
F0.0038607594936708872
sI21
F0.0032594936708860768
sI22
F0.0032911392405063312
sI23
F0.0036392405063291147
sI24
F0.0032911392405063299
sI25
F0.0021835443037974685
sI26
F0.0026898734177215194
sI27
F0.0025000000000000009
sI28
F0.0025632911392405064
sI29
F0.0024683544303797473
sI30
F0.0027531645569620262
sI31
F0.0021518987341772157
sI32
F0.0048417721518987343
sI33
F0.0031645569620253173
sI34
F0.003481012658227848
sI35
F0.0022784810126582284
sI36
F0.0028481012658227852
sI37
F0.0033227848101265835
sI38
F0.0035126582278481033
sI39
F0.0057911392405063291
ssI49
(dp50
I0
F0.0089254766031195872
sI1
F0.0084055459272097052
sI2
F0.009618717504332755
sI3
F0.0078856152512998302
sI4
F0.017764298093587524
sI5
F0.0079722703639514732
sI6
F0.0082322357019064141
sI7
F0.011265164644714038
sI8
F0.011611785095320624
sI9
F0.0098786828422876942
sI10
F0.008578856152512998
sI11
F0.0090987868284228782
sI12
F0.0097920277296360495
sI13
F0.013518197573656849
sI14
F0.010571923743500865
sI15
F0.011178509532062392
sI16
F0.010485268630849223
sI17
F0.0076256499133448867
sI18
F0.0094454072790294639
sI19
F0.0087521663778162926
sI20
F0.060398613518197565
sI21
F0.0095320623916811086
sI22
F0.01005199306759099
sI23
F0.03942807625649912
sI24
F0.02694974003466204
sI25
F0.012391681109185444
sI26
F0.011525129982668979
sI27
F0.0099653379549393441
sI28
F0.0096187175043327567
sI29
F0.0092720970537261693
sI30
F0.18942807625649913
sI31
F0.0094454072790294639
sI32
F0.027469670710571926
sI33
F0.043327556325823233
sI34
F0.26863084922010405
sI35
F0.0082322357019064107
sI36
F0.012651646447140379
sI37
F0.01689774696707106
sI38
F0.012738301559792029
sI39
F0.011438474870017333
ss.