(dp0
I0
(dp1
I0
F0.0053448275862068937
sI1
F0.0038423645320197013
sI2
F0.0040640394088669917
sI3
F0.0043349753694581243
sI4
F0.0075862068965517251
sI5
F0.0050492610837438393
sI6
F0.0056896551724137908
sI7
F0.0043103448275862042
sI8
F0.0038423645320197018
sI9
F0.0042857142857142825
sI10
F0.0040640394088669917
sI11
F0.0044581280788177306
sI12
F0.0047290640394088632
sI13
F0.0049753694581280757
sI14
F0.0040886699507389134
sI15
F0.0045812807881773368
sI16
F0.0042118226600985189
sI17
F0.0057635467980295552
sI18
F0.0060591133004926087
sI19
F0.0044088669950738887
sI20
F0.0038916256157635436
sI21
F0.0042857142857142825
sI22
F0.0041133004926108344
sI23
F0.0072906403940886681
sI24
F0.0047290640394088632
sI25
F0.0040886699507389126
sI26
F0.0042364532019704406
sI27
F0.0033497536945812788
sI28
F0.0044581280788177306
sI29
F0.86386699507389197
ssI1
(dp2
I0
F0.0057635467980295526
sI1
F0.0047536945812807849
sI2
F0.0040147783251231499
sI3
F0.0043596059113300461
sI4
F0.0097044334975369458
sI5
F0.0046551724137931004
sI6
F0.0062561576354679786
sI7
F0.0045073891625615724
sI8
F0.0044581280788177314
sI9
F0.0048768472906403904
sI10
F0.0039162561576354653
sI11
F0.0046551724137930996
sI12
F0.004926108374384233
sI13
F0.0040886699507389134
sI14
F0.0039408866995073871
sI15
F0.0045566502463054151
sI16
F0.0043349753694581251
sI17
F0.0051970443349753656
sI18
F0.0059113300492610807
sI19
F0.0051724137931034456
sI20
F0.0047044334975369423
sI21
F0.0039162561576354645
sI22
F0.0039162561576354645
sI23
F0.0065024630541871929
sI24
F0.0040640394088669908
sI25
F0.0042118226600985189
sI26
F0.0035714285714285683
sI27
F0.0041133004926108344
sI28
F0.0047783251231527058
sI29
F0.8601724137931035
ssI2
(dp3
I0
F0.0073628048780487784
sI1
F0.0067225609756097569
sI2
F0.0042073170731707346
sI3
F0.0053506097560975631
sI4
F0.088963414634146337
sI5
F0.0062042682926829271
sI6
F0.010731707317073172
sI7
F0.00746951219512195
sI8
F0.0046646341463414667
sI9
F0.62106707317073162
sI10
F0.0049237804878048816
sI11
F0.0054268292682926834
sI12
F0.0064786585365853681
sI13
F0.0050152439024390271
sI14
F0.0049695121951219548
sI15
F0.0062347560975609742
sI16
F0.0048628048780487839
sI17
F0.017408536585365852
sI18
F0.059771341463414646
sI19
F0.015990853658536582
sI20
F0.0098018292682926795
sI21
F0.0056402439024390259
sI22
F0.003750000000000002
sI23
F0.015746951219512199
sI24
F0.006097560975609758
sI25
F0.0046646341463414667
sI26
F0.0050609756097560995
sI27
F0.0043292682926829298
sI28
F0.013429878048780488
sI29
F0.03765243902439025
ssI3
(dp4
I0
F0.0054773384763741563
sI1
F0.012343297974927678
sI2
F0.0046094503375120541
sI3
F0.0054387656702025063
sI4
F0.030549662487946005
sI5
F0.0076567020250723249
sI6
F0.0054001928640308597
sI7
F0.0096239151398264233
sI8
F0.0052651880424300869
sI9
F0.011571841851494695
sI10
F0.0051301832208293149
sI11
F0.0063837994214079076
sI12
F0.0053230472516875606
sI13
F0.0038379942140790752
sI14
F0.0047058823529411743
sI15
F0.011243972999035678
sI16
F0.0054773384763741571
sI17
F0.0089488910318225642
sI18
F0.0061909353905496619
sI19
F0.73157184185149471
sI20
F0.009546769527483125
sI21
F0.0086017357762777271
sI22
F0.0055351976856316308
sI23
F0.0054773384763741563
sI24
F0.0055930568948891037
sI25
F0.0047444551591128252
sI26
F0.0078302796528447443
sI27
F0.0046480231436837023
sI28
F0.029527483124397298
sI29
F0.031745419479267116
ssI4
(dp5
I0
F0.014717636837532582
sI1
F0.0048827106863596871
sI2
F0.0052649869678540392
sI3
F0.006463944396177237
sI4
F0.11850564726324936
sI5
F0.0063944396177237177
sI6
F0.0048653344917463058
sI7
F0.64474370112945267
sI8
F0.0046220677671589914
sI9
F0.0085490877497827952
sI10
F0.0053171155516941772
sI11
F0.008531711555169413
sI12
F0.010112945264986966
sI13
F0.0059947871416159851
sI14
F0.0055082536924413537
sI15
F0.00688097306689835
sI16
F0.0060990443092962619
sI17
F0.02380538662033015
sI18
F0.01721980886185925
sI19
F0.016281494352736747
sI20
F0.0091572545612510839
sI21
F0.0069504778453518675
sI22
F0.0046220677671589905
sI23
F0.0068114682884448281
sI24
F0.004900086880973065
sI25
F0.0049522154648132047
sI26
F0.0053344917463075577
sI27
F0.0066724587315377913
sI28
F0.012076455256298871
sI29
F0.013761946133796691
ssI5
(dp6
I0
F0.01273972602739726
sI1
F0.010776255707762554
sI2
F0.0099543378995433779
sI3
F0.009497716894977172
sI4
F0.0095890410958904097
sI5
F0.0096803652968036526
sI6
F0.0088127853881278546
sI7
F0.0099086757990867573
sI8
F0.0095890410958904132
sI9
F0.0098173515981735161
sI10
F0.0084474885844748864
sI11
F0.0089041095890410975
sI12
F0.011004566210045658
sI13
F0.013287671232876712
sI14
F0.0078538812785388119
sI15
F0.0098173515981735161
sI16
F0.6103196347031965
sI17
F0.01894977168949772
sI18
F0.014703196347031959
sI19
F0.011780821917808222
sI20
F0.012328767123287667
sI21
F0.0087671232876712305
sI22
F0.0099086757990867573
sI23
F0.012146118721461185
sI24
F0.010547945205479456
sI25
F0.0092694063926940622
sI26
F0.013652968036529685
sI27
F0.009178082191780821
sI28
F0.013378995433789955
sI29
F0.085388127853881279
ssI6
(dp7
I0
F0.0058250825082508265
sI1
F0.016485148514851496
sI2
F0.0046369636963696373
sI3
F0.0070792079207920803
sI4
F0.017409240924092406
sI5
F0.63930693069306921
sI6
F0.00400990099009901
sI7
F0.0051815181518151824
sI8
F0.0063366336633663353
sI9
F0.0051485148514851461
sI10
F0.0054785478547854797
sI11
F0.0052805280528052815
sI12
F0.0067326732673267352
sI13
F0.0066666666666666662
sI14
F0.0052310231023102293
sI15
F0.0066666666666666662
sI16
F0.0059075907590759088
sI17
F0.05975247524752475
sI18
F0.010313531353135312
sI19
F0.017326732673267328
sI20
F0.013448844884488449
sI21
F0.0059900990099009919
sI22
F0.0046369636963696373
sI23
F0.0044389438943894383
sI24
F0.0048844884488448851
sI25
F0.0043894389438943904
sI26
F0.0046534653465346541
sI27
F0.0041749174917491754
sI28
F0.035445544554455449
sI29
F0.077161716171617156
ssI7
(dp8
I0
F0.0052640402347024304
sI1
F0.0041743503772003346
sI2
F0.0050125733445096389
sI3
F0.005096395641240572
sI4
F0.84860016764459312
sI5
F0.0066051969823973143
sI6
F0.0045599329421626153
sI7
F0.0054484492875104774
sI8
F0.003805532271584242
sI9
F0.0063537300922045271
sI10
F0.0044090528080469402
sI11
F0.0043084660519698238
sI12
F0.00410729253981559
sI13
F0.0068231349538977384
sI14
F0.0055993294216261525
sI15
F0.0050963956412405712
sI16
F0.0054484492875104748
sI17
F0.0042414082145850792
sI18
F0.0076781223805532242
sI19
F0.0051131601005867562
sI20
F0.0048784576697401506
sI21
F0.0036546521374685673
sI22
F0.0047108130762782896
sI23
F0.0048952221290863365
sI24
F0.0035373009220452628
sI25
F0.0052137468566638709
sI26
F0.0048281642917015919
sI27
F0.0034702430846605191
sI28
F0.0034031852472757762
sI29
F0.013663034367141655
ssI8
(dp9
I0
F0.0046356275303643711
sI1
F0.0050202429149797563
sI2
F0.0054251012145748977
sI3
F0.0066194331983805664
sI4
F0.75194331983805696
sI5
F0.0059919028340080982
sI6
F0.010627530364372473
sI7
F0.0063967611336032395
sI8
F0.0042510121457489886
sI9
F0.0063967611336032395
sI10
F0.0061538461538461538
sI11
F0.005607287449392713
sI12
F0.0063360323886639683
sI13
F0.010668016194331987
sI14
F0.0068421052631578968
sI15
F0.0061133603238866397
sI16
F0.0047165991902834003
sI17
F0.0059716599190283402
sI18
F0.059190283400809722
sI19
F0.006619433198380569
sI20
F0.0051417004048583013
sI21
F0.0052834008097165999
sI22
F0.0060323886639676106
sI23
F0.013097165991902833
sI24
F0.0056072874493927113
sI25
F0.0057085020242915009
sI26
F0.0058704453441295592
sI27
F0.0045546558704453437
sI28
F0.0044331983805668022
sI29
F0.018744939271255069
ssI9
(dp10
I0
F0.0068542713567839204
sI1
F0.0048643216080401976
sI2
F0.0052663316582914543
sI3
F0.0052663316582914543
sI4
F0.84112562814070313
sI5
F0.0049447236180904493
sI6
F0.0057487437185929626
sI7
F0.0072361809045226122
sI8
F0.0049648241206030116
sI9
F0.0053668341708542674
sI10
F0.0056281407035175864
sI11
F0.0051055276381909518
sI12
F0.0053467336683417068
sI13
F0.0065929648241206005
sI14
F0.00536683417085427
sI15
F0.0046432160804020066
sI16
F0.0052261306532663289
sI17
F0.0042613065326633139
sI18
F0.0067537688442211039
sI19
F0.0050452261306532633
sI20
F0.0052261306532663289
sI21
F0.0056683417085427127
sI22
F0.0051457286432160763
sI23
F0.0053467336683417051
sI24
F0.0048844221105527599
sI25
F0.005909547738693466
sI26
F0.0046834170854271337
sI27
F0.0060703517587939702
sI28
F0.00387939698492462
sI29
F0.0075778894472361804
ssI10
(dp11
I0
F0.0038589743589743574
sI1
F0.79382051282051302
sI2
F0.0024743589743589736
sI3
F0.0031153846153846132
sI4
F0.0050512820512820513
sI5
F0.0034999999999999996
sI6
F0.0033076923076923071
sI7
F0.0034999999999999988
sI8
F0.0029871794871794864
sI9
F0.0037307692307692298
sI10
F0.0025384615384615389
sI11
F0.0032692307692307678
sI12
F0.0034487179487179475
sI13
F0.0034358974358974352
sI14
F0.0028205128205128194
sI15
F0.0037820512820512797
sI16
F0.0031538461538461516
sI17
F0.080038461538461544
sI18
F0.0035384615384615372
sI19
F0.0047307692307692311
sI20
F0.0038589743589743579
sI21
F0.0033717948717948698
sI22
F0.0023589743589743583
sI23
F0.0024871794871794864
sI24
F0.0049999999999999992
sI25
F0.0031666666666666649
sI26
F0.0039358974358974334
sI27
F0.0031923076923076913
sI28
F0.031448717948717946
sI29
F0.0050769230769230787
ssI11
(dp12
I0
F0.0041538461538461512
sI1
F0.0061025641025641017
sI2
F0.0030897435897435889
sI3
F0.0048205128205128182
sI4
F0.0039871794871794864
sI5
F0.0032564102564102567
sI6
F0.0035769230769230765
sI7
F0.00291025641025641
sI8
F0.0034230769230769215
sI9
F0.0035769230769230752
sI10
F0.0027948717948717938
sI11
F0.0036025641025640999
sI12
F0.0033461538461538446
sI13
F0.0038846153846153809
sI14
F0.0030384615384615368
sI15
F0.0035641025641025624
sI16
F0.0034487179487179467
sI17
F0.17669230769230762
sI18
F0.003589743589743588
sI19
F0.0044615384615384595
sI20
F0.0041538461538461521
sI21
F0.0035769230769230761
sI22
F0.0032307692307692302
sI23
F0.0032948717948717929
sI24
F0.50424358974358963
sI25
F0.0029743589743589727
sI26
F0.0041025641025641
sI27
F0.0030384615384615376
sI28
F0.2195
sI29
F0.0045641025641025637
ssI12
(dp13
I0
F0.020189228529839884
sI1
F0.0066229985443959274
sI2
F0.0040174672489082987
sI3
F0.0047743813682678314
sI4
F0.077205240174672493
sI5
F0.0062008733624454139
sI6
F0.0049927219796215431
sI7
F0.0045414847161572049
sI8
F0.010887918486171759
sI9
F0.005269286754002912
sI10
F0.0045269286754002908
sI11
F0.0037554585152838431
sI12
F0.34806404657933043
sI13
F0.0077438136826783119
sI14
F0.0042358078602620086
sI15
F0.00473071324599709
sI16
F0.0064919941775836987
sI17
F0.13352256186317318
sI18
F0.010378457059679764
sI19
F0.0065065502183406102
sI20
F0.0078602620087336247
sI21
F0.0077001455604075661
sI22
F0.0041921397379912672
sI23
F0.0045851528384279489
sI24
F0.0067685589519650658
sI25
F0.0043085880640465792
sI26
F0.0063901018922852991
sI27
F0.0042940320232896668
sI28
F0.23187772925764188
sI29
F0.047365356622998539
ssI13
(dp14
I0
F0.2677932960893854
sI1
F0.023798882681564243
sI2
F0.008687150837988827
sI3
F0.013519553072625696
sI4
F0.11650837988826813
sI5
F0.020000000000000004
sI6
F0.02086592178770949
sI7
F0.0096368715083798868
sI8
F0.0077653631284916209
sI9
F0.019134078212290503
sI10
F0.0084916201117318443
sI11
F0.0073184357541899447
sI12
F0.0098324022346368729
sI13
F0.0084916201117318443
sI14
F0.010083798882681563
sI15
F0.0099720670391061465
sI16
F0.010474860335195528
sI17
F0.0085195530726256945
sI18
F0.01033519553072626
sI19
F0.049692737430167597
sI20
F0.024553072625698325
sI21
F0.0065083798882681551
sI22
F0.0078491620111731872
sI23
F0.019469273743016765
sI24
F0.0072625698324022339
sI25
F0.0077374301675977655
sI26
F0.010782122905027933
sI27
F0.0057541899441340763
sI28
F0.010726256983240222
sI29
F0.25843575418994413
ssI14
(dp15
I0
F0.008881239242685024
sI1
F0.009018932874354563
sI2
F0.0074698795180722886
sI3
F0.011049913941480204
sI4
F0.10351118760757315
sI5
F0.0075731497418244399
sI6
F0.014388984509466437
sI7
F0.0072633390705679861
sI8
F0.0088468158347676431
sI9
F0.0082960413080895006
sI10
F0.0076075731497418251
sI11
F0.0079862306368330468
sI12
F0.01242685025817556
sI13
F0.0085714285714285701
sI14
F0.0078141135972461268
sI15
F0.008158347676419965
sI16
F0.0093975903614457838
sI17
F0.013321858864027538
sI18
F0.0079173838209982781
sI19
F0.010774526678141137
sI20
F0.0081239242685025807
sI21
F0.0092943201376936308
sI22
F0.0069191049913941462
sI23
F0.0077452667814113599
sI24
F0.0095008605851979316
sI25
F0.0086058519793459527
sI26
F0.0092598967297762499
sI27
F0.010223752151462992
sI28
F0.012908777969018934
sI29
F0.63714285714285723
ssI15
(dp16
I0
F0.0046666666666666671
sI1
F0.0044444444444444453
sI2
F0.0036111111111111127
sI3
F0.0033888888888888896
sI4
F0.0090555555555555511
sI5
F0.0036111111111111109
sI6
F0.012462962962962967
sI7
F0.003574074074074075
sI8
F0.0032222222222222231
sI9
F0.0037777777777777775
sI10
F0.0037222222222222236
sI11
F0.0027962962962962972
sI12
F0.0035555555555555553
sI13
F0.0035370370370370373
sI14
F0.0029259259259259277
sI15
F0.0044629629629629637
sI16
F0.0034629629629629633
sI17
F0.0042962962962962955
sI18
F0.0034629629629629646
sI19
F0.0042407407407407411
sI20
F0.0044814814814814813
sI21
F0.0035555555555555562
sI22
F0.0031851851851851863
sI23
F0.87374074074074071
sI24
F0.0033148148148148147
sI25
F0.0034814814814814821
sI26
F0.0039629629629629624
sI27
F0.0032407407407407411
sI28
F0.0062222222222222236
sI29
F0.0065370370370370382
ssI16
(dp17
I0
F0.0087704918032786901
sI1
F0.0062622950819672145
sI2
F0.0033114754098360634
sI3
F0.003885245901639342
sI4
F0.0050491803278688522
sI5
F0.0045245901639344253
sI6
F0.005131147540983606
sI7
F0.011901639344262298
sI8
F0.0043934426229508185
sI9
F0.0042622950819672109
sI10
F0.0035573770491803282
sI11
F0.012360655737704916
sI12
F0.0034098360655737698
sI13
F0.0035901639344262277
sI14
F0.0034590163934426228
sI15
F0.81440983606557371
sI16
F0.0034754098360655732
sI17
F0.0055901639344262295
sI18
F0.0035409836065573757
sI19
F0.0060983606557377026
sI20
F0.0083114754098360666
sI21
F0.03531147540983607
sI22
F0.0031967213114754084
sI23
F0.0038524590163934408
sI24
F0.0040327868852459009
sI25
F0.0030655737704918008
sI26
F0.003721311475409834
sI27
F0.008967213114754102
sI28
F0.0068196721311475405
sI29
F0.0057377049180327867
ssI17
(dp18
I0
F0.0030769230769230769
sI1
F0.0038103756708407878
sI2
F0.0035957066189624331
sI3
F0.0032200357781753141
sI4
F0.004275491949910554
sI5
F0.0035241502683363139
sI6
F0.0029516994633273707
sI7
F0.0076744186046511622
sI8
F0.806153846153846
sI9
F0.0037924865831842573
sI10
F0.0030769230769230787
sI11
F0.013220035778175312
sI12
F0.0034704830053667256
sI13
F0.0036135957066189611
sI14
F0.0030948121645796075
sI15
F0.0067084078711985703
sI16
F0.0037388193202146707
sI17
F0.0047584973166368534
sI18
F0.003720930232558138
sI19
F0.0041144901610017867
sI20
F0.0060465116279069756
sI21
F0.053792486583184251
sI22
F0.0035599284436493737
sI23
F0.0033273703041144919
sI24
F0.0031663685152057259
sI25
F0.0034704830053667252
sI26
F0.0034347048300536688
sI27
F0.025026833631484793
sI28
F0.0034883720930232571
sI29
F0.0030948121645796058
ssI18
(dp19
I0
F0.010724637681159423
sI1
F0.022732919254658385
sI2
F0.011262939958592138
sI3
F0.015569358178053836
sI4
F0.039585921325051766
sI5
F0.023850931677018648
sI6
F0.010476190476190479
sI7
F0.026708074534161484
sI8
F0.01287784679089027
sI9
F0.025631469979296072
sI10
F0.014368530020703936
sI11
F0.0093995859213250529
sI12
F0.017391304347826087
sI13
F0.014368530020703931
sI14
F0.013623188405797104
sI15
F0.015196687370600421
sI16
F0.016356107660455491
sI17
F0.043892339544513458
sI18
F0.060165631469979289
sI19
F0.021325051759834367
sI20
F0.11958592132505171
sI21
F0.015196687370600415
sI22
F0.015569358178053834
sI23
F0.017060041407867502
sI24
F0.011138716356107661
sI25
F0.013209109730848861
sI26
F0.013002070393374745
sI27
F0.0095652173913043526
sI28
F0.017184265010351966
sI29
F0.34298136645962735
ssI19
(dp20
I0
F0.0076380368098159486
sI1
F0.0080981595092024568
sI2
F0.0080368098159509186
sI3
F0.0083435582822085855
sI4
F0.056104294478527612
sI5
F0.0086809815950920216
sI6
F0.0066871165644171778
sI7
F0.0073006134969325134
sI8
F0.0073312883435582817
sI9
F0.0097546012269938663
sI10
F0.0078527607361963177
sI11
F0.0072699386503067434
sI12
F0.0091411042944785238
sI13
F0.0090490797546012251
sI14
F0.0072085889570552156
sI15
F0.0091717791411042929
sI16
F0.010613496932515341
sI17
F0.020766871165644171
sI18
F0.69374233128834362
sI19
F0.0099079754601226963
sI20
F0.010797546012269937
sI21
F0.0069018404907975452
sI22
F0.0078527607361963177
sI23
F0.007423312883435583
sI24
F0.0062576687116564396
sI25
F0.008711656441717789
sI26
F0.0057055214723926361
sI27
F0.0057668711656441718
sI28
F0.012638036809815949
sI29
F0.015245398773006133
ssI20
(dp21
I0
F0.015306479859894924
sI1
F0.0081260945709281957
sI2
F0.006094570928196149
sI3
F0.0066199649737302994
sI4
F0.0077408056042031527
sI5
F0.0067600700525394068
sI6
F0.006269702276707533
sI7
F0.0081260945709281957
sI8
F0.0065148861646234704
sI9
F0.0071103327495621741
sI10
F0.0061646234676007031
sI11
F0.0083012259194395789
sI12
F0.0078108581436077077
sI13
F0.0067250437828371276
sI14
F0.007005253940455345
sI15
F0.0088616462346760086
sI16
F0.0064098073555166378
sI17
F0.0076707530647986012
sI18
F0.0063047285464098088
sI19
F0.0085814360770577955
sI20
F0.0056742556917688284
sI21
F0.0070402802101576182
sI22
F0.006094570928196149
sI23
F0.006199649737302978
sI24
F0.0066199649737302968
sI25
F0.0054640980735551677
sI26
F0.010017513134851141
sI27
F0.0059544658493870415
sI28
F0.78833625218914194
sI29
F0.0060945709281961498
ssI21
(dp22
I0
F0.0026794871794871781
sI1
F0.0029743589743589727
sI2
F0.0023846153846153835
sI3
F0.00255128205128205
sI4
F0.0027051282051282028
sI5
F0.0030384615384615376
sI6
F0.0029230769230769215
sI7
F0.0036923076923076892
sI8
F0.0031153846153846153
sI9
F0.0026025641025641012
sI10
F0.0025128205128205116
sI11
F0.91326923076923083
sI12
F0.0022948717948717929
sI13
F0.0025384615384615389
sI14
F0.002371794871794872
sI15
F0.0041153846153846128
sI16
F0.0022820512820512819
sI17
F0.0023076923076923079
sI18
F0.0027307692307692293
sI19
F0.0035384615384615372
sI20
F0.0038461538461538438
sI21
F0.0062692307692307683
sI22
F0.0023846153846153839
sI23
F0.0024615384615384612
sI24
F0.0023205128205128198
sI25
F0.002269230769230769
sI26
F0.002615384615384614
sI27
F0.0044487179487179484
sI28
F0.0033461538461538455
sI29
F0.0034102564102564087
ssI22
(dp23
I0
F0.0053589743589743588
sI1
F0.0070769230769230761
sI2
F0.0041153846153846154
sI3
F0.0051923076923076914
sI4
F0.0069358974358974335
sI5
F0.0050000000000000001
sI6
F0.0036666666666666666
sI7
F0.0053589743589743588
sI8
F0.0049615384615384608
sI9
F0.00441025641025641
sI10
F0.0043205128205128195
sI11
F0.004474358974358974
sI12
F0.0066666666666666645
sI13
F0.0047179487179487174
sI14
F0.0047820512820512815
sI15
F0.0051923076923076914
sI16
F0.0071538461538461504
sI17
F0.71067948717948692
sI18
F0.0065512820512820501
sI19
F0.0077692307692307696
sI20
F0.0051923076923076931
sI21
F0.010602564102564105
sI22
F0.0034999999999999996
sI23
F0.0036794871794871768
sI24
F0.0073846153846153827
sI25
F0.0042564102564102563
sI26
F0.0063974358974358938
sI27
F0.0052307692307692298
sI28
F0.13255128205128205
sI29
F0.0068205128205128165
ssI23
(dp24
I0
F0.0060387096774193539
sI1
F0.0057806451612903232
sI2
F0.005135483870967743
sI3
F0.0049032258064516136
sI4
F0.0077935483870967713
sI5
F0.0077161290322580664
sI6
F0.0066838709677419349
sI7
F0.0074838709677419353
sI8
F0.0073548387096774217
sI9
F0.0064258064516129025
sI10
F0.0049548387096774223
sI11
F0.0056000000000000017
sI12
F0.0053935483870967745
sI13
F0.0060129032258064517
sI14
F0.004696774193548389
sI15
F0.0077161290322580655
sI16
F0.0057290322580645136
sI17
F0.008051612903225808
sI18
F0.010141935483870969
sI19
F0.0081032258064516124
sI20
F0.73889032258064535
sI21
F0.020154838709677422
sI22
F0.0047741935483870991
sI23
F0.0055483870967741929
sI24
F0.0046967741935483882
sI25
F0.0049032258064516162
sI26
F0.0058322580645161302
sI27
F0.050761290322580643
sI28
F0.0069935483870967726
sI29
F0.025729032258064513
ssI24
(dp25
I0
F0.013892529488859766
sI1
F0.0056356487549148095
sI2
F0.0067889908256880717
sI3
F0.010249017038007863
sI4
F0.018558322411533424
sI5
F0.0091480996068152021
sI6
F0.0056356487549148095
sI7
F0.0076539973787680213
sI8
F0.0087024901703800801
sI9
F0.010878112712975098
sI10
F0.005871559633027522
sI11
F0.0052948885976408918
sI12
F0.027863695937090434
sI13
F0.0098820445609436435
sI14
F0.0064220183486238544
sI15
F0.0073132372214941019
sI16
F0.0084141546526867641
sI17
F0.019711664482306688
sI18
F0.016094364351245085
sI19
F0.010432503276539978
sI20
F0.0094888597640891224
sI21
F0.71491480996068146
sI22
F0.005871559633027522
sI23
F0.0093053735255570098
sI24
F0.0055307994757536035
sI25
F0.0056880733944954121
sI26
F0.0062123197903014415
sI27
F0.0054259501965923983
sI28
F0.012765399737876808
sI29
F0.010353866317169067
ssI25
(dp26
I0
F0.016598493003229273
sI1
F0.017093649085037674
sI2
F0.0076856835306781477
sI3
F0.0090204520990312172
sI4
F0.60376749192680301
sI5
F0.0067599569429494088
sI6
F0.0098600645855758881
sI7
F0.0079870828848223885
sI8
F0.0060925726587728749
sI9
F0.0080301399354144216
sI10
F0.0062432723358449953
sI11
F0.0052099031216361683
sI12
F0.013756727664155003
sI13
F0.010678148546824544
sI14
F0.01095801937567277
sI15
F0.0075565123789020448
sI16
F0.0082238966630785795
sI17
F0.094854682454251882
sI18
F0.036383207750269098
sI19
F0.0097954790096878384
sI20
F0.0056189451022604945
sI21
F0.0052099031216361691
sI22
F0.0070828848223896679
sI23
F0.011345532831001079
sI24
F0.010118406889128097
sI25
F0.0058127018299246489
sI26
F0.0080731969860064583
sI27
F0.004800861141011842
sI28
F0.035156081808396113
sI29
F0.01022604951560818
ssI26
(dp27
I0
F0.010158730158730159
sI1
F0.008926237161531278
sI2
F0.0083099906629318376
sI3
F0.0091129785247432305
sI4
F0.084780578898225961
sI5
F0.01068160597572362
sI6
F0.0056022408963585435
sI7
F0.0059757236227824442
sI8
F0.0066106442577030791
sI9
F0.009262371615312787
sI10
F0.0083286647992530313
sI11
F0.0057703081232492971
sI12
F0.042147525676937435
sI13
F0.014939309056956116
sI14
F0.0094864612511671303
sI15
F0.0071521942110177386
sI16
F0.012306255835667594
sI17
F0.1518020541549954
sI18
F0.039943977591036406
sI19
F0.015760971055088703
sI20
F0.0061624649859943949
sI21
F0.0049673202614379051
sI22
F0.0084033613445378113
sI23
F0.0059010270774976625
sI24
F0.012175536881419232
sI25
F0.0078804855275443481
sI26
F0.0072642390289449077
sI27
F0.0050420168067226868
sI28
F0.018244631185807658
sI29
F0.45690009337068133
ssI27
(dp28
I0
F0.0047564102564102541
sI1
F0.0027820512820512814
sI2
F0.0028205128205128181
sI3
F0.002782051282051281
sI4
F0.0041923076923076931
sI5
F0.0027564102564102545
sI6
F0.0022179487179487174
sI7
F0.0031153846153846145
sI8
F0.0035769230769230743
sI9
F0.0027948717948717942
sI10
F0.0030128205128205098
sI11
F0.0036153846153846149
sI12
F0.0031025641025641008
sI13
F0.002615384615384614
sI14
F0.0025128205128205124
sI15
F0.0034871794871794847
sI16
F0.0030256410256410244
sI17
F0.0042307692307692307
sI18
F0.0031410256410256388
sI19
F0.0045769230769230748
sI20
F0.0026153846153846153
sI21
F0.0048205128205128208
sI22
F0.0027179487179487174
sI23
F0.0036282051282051251
sI24
F0.0038589743589743574
sI25
F0.0029358974358974347
sI26
F0.90005128205128204
sI27
F0.0053717948717948716
sI28
F0.0056794871794871781
sI29
F0.0032051282051282033
ssI28
(dp29
I0
F0.79364102564102579
sI1
F0.0053589743589743596
sI2
F0.0034487179487179475
sI3
F0.0045897435897435867
sI4
F0.073269230769230823
sI5
F0.0031923076923076909
sI6
F0.0035512820512820496
sI7
F0.0042948717948717938
sI8
F0.0034102564102564074
sI9
F0.0032692307692307682
sI10
F0.0034487179487179488
sI11
F0.0033846153846153831
sI12
F0.0051794871794871812
sI13
F0.0033333333333333327
sI14
F0.0034230769230769215
sI15
F0.0036153846153846136
sI16
F0.0033076923076923075
sI17
F0.016948717948717943
sI18
F0.0039615384615384608
sI19
F0.0049102564102564087
sI20
F0.0030256410256410239
sI21
F0.0042692307692307665
sI22
F0.0029871794871794873
sI23
F0.0039230769230769215
sI24
F0.0039102564102564078
sI25
F0.0037051282051282037
sI26
F0.0054743589743589741
sI27
F0.0030897435897435893
sI28
F0.014487179487179482
sI29
F0.0055897435897435885
ssI29
(dp30
I0
F0.0031794871794871794
sI1
F0.002820512820512819
sI2
F0.0028974358974358937
sI3
F0.0026538461538461529
sI4
F0.0038076923076923053
sI5
F0.0025897435897435889
sI6
F0.0022307692307692293
sI7
F0.0080769230769230718
sI8
F0.003948717948717948
sI9
F0.002923076923076921
sI10
F0.0025897435897435893
sI11
F0.0066410256410256397
sI12
F0.0023846153846153839
sI13
F0.0030256410256410248
sI14
F0.0021794871794871789
sI15
F0.006948717948717948
sI16
F0.0030897435897435876
sI17
F0.0035641025641025602
sI18
F0.0026538461538461533
sI19
F0.0037692307692307682
sI20
F0.0036538461538461542
sI21
F0.89689743589743598
sI22
F0.0021666666666666666
sI23
F0.0027564102564102545
sI24
F0.002820512820512819
sI25
F0.0023333333333333335
sI26
F0.0036666666666666653
sI27
F0.0078589743589743584
sI28
F0.003128205128205126
sI29
F0.0027435897435897421
ssI30
(dp31
I0
F0.011000000000000001
sI1
F0.010351351351351351
sI2
F0.0067027027027027029
sI3
F0.013756756756756758
sI4
F0.12232432432432436
sI5
F0.013270270270270274
sI6
F0.013297297297297301
sI7
F0.010243243243243246
sI8
F0.0075945945945945937
sI9
F0.014081081081081082
sI10
F0.0092432432432432449
sI11
F0.0085405405405405404
sI12
F0.013891891891891888
sI13
F0.0088648648648648673
sI14
F0.0089189189189189215
sI15
F0.0088108108108108131
sI16
F0.38532432432432429
sI17
F0.029945945945945941
sI18
F0.11605405405405408
sI19
F0.023594594594594599
sI20
F0.025027027027027023
sI21
F0.0085135135135135168
sI22
F0.0086216216216216182
sI23
F0.013000000000000001
sI24
F0.0083513513513513507
sI25
F0.0085945945945945981
sI26
F0.0078648648648648664
sI27
F0.0065135135135135115
sI28
F0.012297297297297293
sI29
F0.065405405405405403
ssI31
(dp32
I0
F0.0082002706359945894
sI1
F0.0047902571041948568
sI2
F0.0039106901217861971
sI3
F0.0041407307171853853
sI4
F0.067496617050067667
sI5
F0.0047361299052774012
sI6
F0.0060757780784844407
sI7
F0.004100135317997293
sI8
F0.0036806495263870097
sI9
F0.0049661705006765885
sI10
F0.0033017591339648167
sI11
F0.0033694181326116368
sI12
F0.0070094722598105551
sI13
F0.0039106901217861971
sI14
F0.0037618403247631944
sI15
F0.0038024357239512842
sI16
F0.0040460081190798365
sI17
F0.017834912043301756
sI18
F0.79144790257104181
sI19
F0.0044384303112313932
sI20
F0.0044384303112313932
sI21
F0.0035182679296346404
sI22
F0.0037483085250338282
sI23
F0.0032476319350473611
sI24
F0.0044248985115020291
sI25
F0.0038024357239512833
sI26
F0.0035723951285520968
sI27
F0.003342354533152909
sI28
F0.0053179972936400546
sI29
F0.009566982408660352
ssI32
(dp33
I0
F0.0052385406922357321
sI1
F0.0047895229186155266
sI2
F0.0049953227315247886
sI3
F0.0049766136576239461
sI4
F0.8611786716557529
sI5
F0.0041347053320860616
sI6
F0.0052572497661365746
sI7
F0.0069784845650140304
sI8
F0.004246959775491113
sI9
F0.0046585594013096344
sI10
F0.005575304022450888
sI11
F0.0039101964452759588
sI12
F0.0046211412535079512
sI13
F0.0055191768007483624
sI14
F0.0042843779232927962
sI15
F0.0043217960710944794
sI16
F0.004209541627689428
sI17
F0.0043217960710944803
sI18
F0.0046772684752104761
sI19
F0.004508886810102899
sI20
F0.0042282507015902705
sI21
F0.0034237605238540691
sI22
F0.0050140318054256302
sI23
F0.006136576239476145
sI24
F0.0048830682881197355
sI25
F0.00411599625818522
sI26
F0.0039476145930776429
sI27
F0.003554724041159963
sI28
F0.004209541627689428
sI29
F0.0080823199251637036
ssI33
(dp34
I0
F0.0043448275862068989
sI1
F0.0035862068965517267
sI2
F0.0035172413793103474
sI3
F0.0036379310344827613
sI4
F0.0048965517241379344
sI5
F0.0044137931034482786
sI6
F0.0034655172413793145
sI7
F0.86881034482758634
sI8
F0.0050689655172413825
sI9
F0.0033793103448275879
sI10
F0.0034137931034482782
sI11
F0.0054137931034482769
sI12
F0.00327586206896552
sI13
F0.0034482758620689685
sI14
F0.0032931034482758651
sI15
F0.0077586206896551706
sI16
F0.0040172413793103483
sI17
F0.0045862068965517259
sI18
F0.0045862068965517259
sI19
F0.0046034482758620723
sI20
F0.0058275862068965486
sI21
F0.0088965517241379292
sI22
F0.0032758620689655195
sI23
F0.004034482758620693
sI24
F0.0037068965517241402
sI25
F0.0029827586206896579
sI26
F0.00427586206896552
sI27
F0.0060517241379310326
sI28
F0.0046896551724137968
sI29
F0.0067413793103448284
ssI34
(dp35
I0
F0.0099431171786120501
sI1
F0.0068486916951080732
sI2
F0.0054835039817974938
sI3
F0.0051877133105802022
sI4
F0.13060295790671217
sI5
F0.0057110352673492562
sI6
F0.0056655290102389042
sI7
F0.0060068259385665478
sI8
F0.0062343572241183118
sI9
F0.0069169510807736015
sI10
F0.0050967007963594966
sI11
F0.0050967007963594957
sI12
F0.0069624573378839535
sI13
F0.56505119453924912
sI14
F0.0048919226393629089
sI15
F0.0054152445961319655
sI16
F0.0072354948805460695
sI17
F0.021069397042093284
sI18
F0.012673492605233214
sI19
F0.0069169510807736015
sI20
F0.0077588168373151235
sI21
F0.0060523321956769014
sI22
F0.0050284414106939665
sI23
F0.0066894197952218392
sI24
F0.0062116040955631346
sI25
F0.0047098976109214968
sI26
F0.0045961319681456165
sI27
F0.0049601820250284381
sI28
F0.0086916951080773536
sI29
F0.11629124004550627
ssI35
(dp36
I0
F0.0049615384615384625
sI1
F0.0095128205128205117
sI2
F0.0035641025641025633
sI3
F0.003589743589743588
sI4
F0.0044871794871794851
sI5
F0.0034358974358974352
sI6
F0.0029230769230769223
sI7
F0.003461538461538459
sI8
F0.0035897435897435876
sI9
F0.0033717948717948702
sI10
F0.0029871794871794851
sI11
F0.003153846153846152
sI12
F0.0048076923076923071
sI13
F0.0033717948717948711
sI14
F0.0032820512820512806
sI15
F0.0035256410256410244
sI16
F0.0035512820512820491
sI17
F0.17760256410256406
sI18
F0.0044102564102564091
sI19
F0.00441025641025641
sI20
F0.0031282051282051273
sI21
F0.0037179487179487165
sI22
F0.0029487179487179475
sI23
F0.0026666666666666657
sI24
F0.0049358974358974352
sI25
F0.0032692307692307678
sI26
F0.0038333333333333331
sI27
F0.0037948717948717943
sI28
F0.71369230769230796
sI29
F0.0040128205128205112
ssI36
(dp37
I0
F0.012915129151291515
sI1
F0.0071439114391143943
sI2
F0.0055940959409594097
sI3
F0.0063763837638376383
sI4
F0.014686346863468638
sI5
F0.0054907749077490785
sI6
F0.0055645756457564574
sI7
F0.0056088560885608867
sI8
F0.0036900369003690031
sI9
F0.0047232472324723242
sI10
F0.0048265682656826563
sI11
F0.0044280442804428043
sI12
F0.0095645756457564592
sI13
F0.0065977859778597794
sI14
F0.004413284132841329
sI15
F0.0072177121771217715
sI16
F0.0061107011070110715
sI17
F0.02704059040590405
sI18
F0.009830258302583026
sI19
F0.64354243542435408
sI20
F0.0072472324723247246
sI21
F0.0041623616236162349
sI22
F0.0052693726937269401
sI23
F0.0051808118081180807
sI24
F0.0059040590405904057
sI25
F0.0048708487084870846
sI26
F0.0070848708487084864
sI27
F0.0038671586715867167
sI28
F0.1371070110701107
sI29
F0.023940959409594086
ssI37
(dp38
I0
F0.0047979797979797985
sI1
F0.0061868686868686851
sI2
F0.0060858585858585843
sI3
F0.0061111111111111106
sI4
F0.0061111111111111114
sI5
F0.0067424242424242416
sI6
F0.0048484848484848485
sI7
F0.014999999999999999
sI8
F0.005909090909090909
sI9
F0.0059595959595959581
sI10
F0.0048484848484848485
sI11
F0.014343434343434346
sI12
F0.0054545454545454541
sI13
F0.0049747474747474721
sI14
F0.0047222222222222205
sI15
F0.0072979797979797955
sI16
F0.0045454545454545435
sI17
F0.0091666666666666667
sI18
F0.0057070707070707074
sI19
F0.0090909090909090887
sI20
F0.80106060606060592
sI21
F0.016742424242424239
sI22
F0.0048484848484848485
sI23
F0.0051767676767676763
sI24
F0.004696969696969696
sI25
F0.004772727272727274
sI26
F0.0054040404040404024
sI27
F0.006237373737373735
sI28
F0.0068939393939393915
sI29
F0.0062626262626262605
ssI38
(dp39
I0
F0.005807692307692308
sI1
F0.0056923076923076901
sI2
F0.0029615384615384599
sI3
F0.0059487179487179454
sI4
F0.044884615384615377
sI5
F0.0038205128205128173
sI6
F0.0081923076923076914
sI7
F0.0030128205128205111
sI8
F0.0033974358974358963
sI9
F0.0040769230769230778
sI10
F0.0036794871794871781
sI11
F0.0033076923076923066
sI12
F0.0035512820512820487
sI13
F0.0035512820512820496
sI14
F0.0036794871794871781
sI15
F0.0036025641025641008
sI16
F0.0039999999999999992
sI17
F0.0050128205128205129
sI18
F0.0038717948717948707
sI19
F0.003717948717948717
sI20
F0.0036538461538461525
sI21
F0.0030512820512820504
sI22
F0.0031153846153846136
sI23
F0.0048846153846153848
sI24
F0.0036153846153846136
sI25
F0.003474358974358974
sI26
F0.0041282051282051264
sI27
F0.0026923076923076918
sI28
F0.84015384615384614
sI29
F0.0054615384615384621
ssI39
(dp40
I0
F0.010610583446404339
sI1
F0.0052917232021709622
sI2
F0.0048032564450474899
sI3
F0.0050203527815468104
sI4
F0.0052645861601085461
sI5
F0.004369063772048847
sI6
F0.0052645861601085444
sI7
F0.0051560379918588863
sI8
F0.0046404341926729962
sI9
F0.0046404341926729962
sI10
F0.0047489823609226578
sI11
F0.0045318860244233363
sI12
F0.0072727272727272684
sI13
F0.0045318860244233363
sI14
F0.0043690637720488453
sI15
F0.005237449118046131
sI16
F0.0056716417910447747
sI17
F0.0083039348710990512
sI18
F0.0048846675712347345
sI19
F0.0057530529172320185
sI20
F0.0052374491180461292
sI21
F0.0058616010854816861
sI22
F0.0053731343283582086
sI23
F0.0047761194029850738
sI24
F0.0058616010854816792
sI25
F0.0040705563093622775
sI26
F0.0052917232021709613
sI27
F0.0041248303934871078
sI28
F0.84393487109905019
sI29
F0.0051017639077340533
ssI40
(dp41
I0
F0.0024102564102564104
sI1
F0.0026153846153846145
sI2
F0.0027051282051282007
sI3
F0.0025384615384615354
sI4
F0.0027307692307692293
sI5
F0.0019743589743589736
sI6
F0.93143589743589739
sI7
F0.0021538461538461533
sI8
F0.0021794871794871768
sI9
F0.0022820512820512819
sI10
F0.0023333333333333314
sI11
F0.0025256410256410235
sI12
F0.002076923076923076
sI13
F0.0019743589743589736
sI14
F0.002115384615384614
sI15
F0.002576923076923076
sI16
F0.0018974358974358963
sI17
F0.0022692307692307677
sI18
F0.0023974358974358967
sI19
F0.0024102564102564091
sI20
F0.0030128205128205111
sI21
F0.0018333333333333318
sI22
F0.0017820512820512818
sI23
F0.0038076923076923071
sI24
F0.0021923076923076905
sI25
F0.0019615384615384603
sI26
F0.0022179487179487161
sI27
F0.0021282051282051268
sI28
F0.002782051282051281
sI29
F0.0026794871794871794
ssI41
(dp42
I0
F0.0039487179487179471
sI1
F0.0035384615384615385
sI2
F0.003153846153846152
sI3
F0.003243589743589743
sI4
F0.0058717948717948694
sI5
F0.0033333333333333322
sI6
F0.0037564102564102558
sI7
F0.0034102564102564074
sI8
F0.0072051282051282025
sI9
F0.0036666666666666666
sI10
F0.0027948717948717938
sI11
F0.0025897435897435902
sI12
F0.0041538461538461529
sI13
F0.0027435897435897426
sI14
F0.0030256410256410248
sI15
F0.0027307692307692306
sI16
F0.0036666666666666649
sI17
F0.0078076923076923054
sI18
F0.003358974358974357
sI19
F0.0037948717948717925
sI20
F0.0039999999999999992
sI21
F0.88398717948717964
sI22
F0.0029102564102564095
sI23
F0.0032179487179487144
sI24
F0.0036794871794871785
sI25
F0.0028589743589743583
sI26
F0.0042051282051282042
sI27
F0.0044230769230769237
sI28
F0.0059871794871794838
sI29
F0.0069358974358974309
ssI42
(dp43
I0
F0.011679487179487181
sI1
F0.0050512820512820513
sI2
F0.0051153846153846154
sI3
F0.0050769230769230752
sI4
F0.013641025641025636
sI5
F0.0066923076923076892
sI6
F0.003679487179487179
sI7
F0.0046410256410256397
sI8
F0.0090897435897435881
sI9
F0.0059871794871794856
sI10
F0.0044487179487179493
sI11
F0.0045769230769230757
sI12
F0.49338461538461531
sI13
F0.0066794871794871782
sI14
F0.0047692307692307687
sI15
F0.0052051282051282033
sI16
F0.0070384615384615412
sI17
F0.17235897435897435
sI18
F0.08919230769230771
sI19
F0.015192307692307689
sI20
F0.007153846153846153
sI21
F0.053858974358974333
sI22
F0.0046794871794871781
sI23
F0.0052692307692307691
sI24
F0.0047179487179487183
sI25
F0.0047179487179487166
sI26
F0.0076153846153846115
sI27
F0.0059230769230769224
sI28
F0.010423076923076919
sI29
F0.022141025641025644
ssI43
(dp44
I0
F0.0035512820512820491
sI1
F0.0065384615384615399
sI2
F0.0038333333333333327
sI3
F0.0035897435897435884
sI4
F0.0050897435897435898
sI5
F0.0040641025641025615
sI6
F0.0030384615384615368
sI7
F0.0034230769230769219
sI8
F0.0037435897435897413
sI9
F0.0044102564102564083
sI10
F0.0033974358974358959
sI11
F0.0032435897435897421
sI12
F0.0043846153846153826
sI13
F0.0048589743589743583
sI14
F0.0030897435897435889
sI15
F0.0037179487179487165
sI16
F0.0040769230769230752
sI17
F0.29875641025641025
sI18
F0.0035641025641025637
sI19
F0.0087692307692307653
sI20
F0.0042307692307692272
sI21
F0.0041282051282051256
sI22
F0.0039358974358974343
sI23
F0.0035897435897435902
sI24
F0.0067051282051282021
sI25
F0.0032435897435897439
sI26
F0.0037435897435897422
sI27
F0.0028846153846153843
sI28
F0.58429487179487172
sI29
F0.0041025641025641008
ssI44
(dp45
I0
F0.0028076923076923066
sI1
F0.0028333333333333318
sI2
F0.00269230769230769
sI3
F0.0022564102564102549
sI4
F0.0023974358974358971
sI5
F0.0030512820512820504
sI6
F0.0024615384615384608
sI7
F0.0035384615384615363
sI8
F0.0020897435897435888
sI9
F0.0027307692307692289
sI10
F0.0025769230769230756
sI11
F0.002653846153846152
sI12
F0.0033205128205128177
sI13
F0.0027948717948717925
sI14
F0.0024102564102564091
sI15
F0.0028333333333333327
sI16
F0.0027948717948717938
sI17
F0.0042179487179487187
sI18
F0.0028076923076923066
sI19
F0.003794871794871793
sI20
F0.003717948717948717
sI21
F0.0043846153846153826
sI22
F0.0027948717948717921
sI23
F0.0028461538461538437
sI24
F0.003230769230769228
sI25
F0.0023717948717948715
sI26
F0.0024615384615384612
sI27
F0.0026538461538461533
sI28
F0.91539743589743605
sI29
F0.0030769230769230761
ssI45
(dp46
I0
F0.0057307692307692303
sI1
F0.014320512820512823
sI2
F0.0043461538461538442
sI3
F0.0072692307692307691
sI4
F0.008038461538461536
sI5
F0.0046153846153846158
sI6
F0.0044102564102564109
sI7
F0.0066538461538461526
sI8
F0.0038205128205128199
sI9
F0.0065512820512820527
sI10
F0.0042179487179487144
sI11
F0.0041025641025641017
sI12
F0.0073076923076923084
sI13
F0.005089743589743588
sI14
F0.0035256410256410244
sI15
F0.0045769230769230765
sI16
F0.0061153846153846145
sI17
F0.68023076923076942
sI18
F0.0043461538461538459
sI19
F0.0053846153846153809
sI20
F0.0072948717948717948
sI21
F0.0082435897435897427
sI22
F0.0038076923076923071
sI23
F0.0047179487179487174
sI24
F0.0043205128205128203
sI25
F0.0044743589743589732
sI26
F0.0042564102564102537
sI27
F0.0088076923076923115
sI28
F0.15817948717948718
sI29
F0.0052435897435897426
ssI46
(dp47
I0
F0.0035384615384615359
sI1
F0.0098076923076923072
sI2
F0.0039230769230769215
sI3
F0.0040384615384615394
sI4
F0.0063333333333333306
sI5
F0.0043717948717948716
sI6
F0.0044230769230769219
sI7
F0.0035641025641025624
sI8
F0.0034871794871794855
sI9
F0.004628205128205126
sI10
F0.0035512820512820513
sI11
F0.0026923076923076918
sI12
F0.0038205128205128186
sI13
F0.00441025641025641
sI14
F0.0039230769230769224
sI15
F0.002987179487179486
sI16
F0.0039871794871794864
sI17
F0.84955128205128205
sI18
F0.010692307692307692
sI19
F0.0053717948717948707
sI20
F0.0038333333333333314
sI21
F0.0031025641025641017
sI22
F0.0033205128205128194
sI23
F0.0033717948717948724
sI24
F0.0066666666666666654
sI25
F0.0035769230769230748
sI26
F0.0038846153846153818
sI27
F0.0029615384615384599
sI28
F0.023794871794871796
sI29
F0.0063846153846153818
ssI47
(dp48
I0
F0.01001721170395869
sI1
F0.011979345955249571
sI2
F0.0040447504302925982
sI3
F0.49938037865748702
sI4
F0.20077452667814111
sI5
F0.0064027538726333898
sI6
F0.0060929432013769359
sI7
F0.0058175559380378638
sI8
F0.0059896729776247829
sI9
F0.0059724612736660916
sI10
F0.0043373493975903607
sI11
F0.0046815834767641989
sI12
F0.0079862306368330468
sI13
F0.0053528399311531831
sI14
F0.0041480206540447503
sI15
F0.0046815834767641971
sI16
F0.0056798623063683308
sI17
F0.034836488812392423
sI18
F0.0079518072289156642
sI19
F0.0087435456110154901
sI20
F0.0055421686746987952
sI21
F0.0089500860585197944
sI22
F0.0047332185886402754
sI23
F0.0061962134251290872
sI24
F0.0062650602409638542
sI25
F0.0047160068846815832
sI26
F0.0061962134251290872
sI27
F0.0063683304647160063
sI28
F0.083717728055077434
sI29
F0.022444061962134242
ssI48
(dp49
I0
F0.0023717948717948707
sI1
F0.002782051282051281
sI2
F0.0022692307692307682
sI3
F0.0024102564102564091
sI4
F0.0027820512820512793
sI5
F0.0028076923076923066
sI6
F0.0028717948717948707
sI7
F0.002846153846153845
sI8
F0.0056794871794871755
sI9
F0.0024999999999999996
sI10
F0.0023205128205128198
sI11
F0.0041666666666666657
sI12
F0.0023333333333333331
sI13
F0.0027051282051282033
sI14
F0.0021666666666666657
sI15
F0.0038461538461538446
sI16
F0.0028076923076923066
sI17
F0.0027948717948717942
sI18
F0.0024358974358974343
sI19
F0.0031538461538461512
sI20
F0.003153846153846152
sI21
F0.015641025641025638
sI22
F0.0021153846153846145
sI23
F0.0026410256410256405
sI24
F0.0029102564102564087
sI25
F0.0022564102564102545
sI26
F0.0028333333333333322
sI27
F0.90457692307692328
sI28
F0.0029615384615384586
sI29
F0.0028589743589743579
ssI49
(dp50
I0
F0.011777378815080793
sI1
F0.013141831238779177
sI2
F0.011059245960502695
sI3
F0.020969479353680431
sI4
F0.034578096947935372
sI5
F0.016552962298025137
sI6
F0.0084021543985637343
sI7
F0.013824057450628369
sI8
F0.013536804308797123
sI9
F0.023770197486535014
sI10
F0.012100538599640933
sI11
F0.0087253141831238751
sI12
F0.056337522441651681
sI13
F0.011238779174147222
sI14
F0.011131059245960506
sI15
F0.010628366247755832
sI16
F0.014254937163375232
sI17
F0.070807899461400356
sI18
F0.16836624775583478
sI19
F0.028797127468581683
sI20
F0.014757630161579896
sI21
F0.01780969479353681
sI22
F0.010807899461400362
sI23
F0.011633752244165175
sI24
F0.0087612208258527838
sI25
F0.0094075403949730723
sI26
F0.012136445242369844
sI27
F0.010628366247755837
sI28
F0.29630161579892278
sI29
F0.047755834829443441
ss.